ARM GAS  C:\Users\212596~1\AppData\Local\Temp\cc3UGbLV.s 			page 1


   1              		.syntax unified
   2              		.cpu cortex-m3
   3              		.fpu softvfp
   4              		.eabi_attribute 20, 1
   5              		.eabi_attribute 21, 1
   6              		.eabi_attribute 23, 3
   7              		.eabi_attribute 24, 1
   8              		.eabi_attribute 25, 1
   9              		.eabi_attribute 26, 1
  10              		.eabi_attribute 30, 6
  11              		.eabi_attribute 34, 1
  12              		.eabi_attribute 18, 4
  13              		.thumb
  14              		.syntax unified
  15              		.file	"main.c"
  16              		.text
  17              	.Ltext0:
  18              		.cfi_sections	.debug_frame
  19              		.global	temperature
  20              		.bss
  21              		.align	2
  22              		.type	temperature, %object
  23              		.size	temperature, 4
  24              	temperature:
  25 0000 00000000 		.space	4
  26              		.comm	absTemp,4,4
  27              		.comm	vRef,2,2
  28              		.comm	vTherm,2,2
  29              		.comm	str,16,4
  30              		.section	.rodata
  31              		.align	2
  32              	.LC0:
  33 0000 256C642E 		.ascii	"%ld.%02ldF\015\012\000"
  33      2530326C 
  33      64460D0A 
  33      00
  34              		.section	.text.function,"ax",%progbits
  35              		.align	2
  36              		.global	function
  37              		.thumb
  38              		.thumb_func
  39              		.type	function, %function
  40              	function:
  41              	.LFB64:
  42              		.file 1 "main.c"
   1:main.c        **** /*******************************************************************************
   2:main.c        **** * File Name: main.c
   3:main.c        **** *
   4:main.c        **** * Version: 1.20
   5:main.c        **** *
   6:main.c        **** * Description:
   7:main.c        **** *  This is source code for the datasheet example of the Thermistor Calculator
   8:main.c        **** *  component.
   9:main.c        **** *
  10:main.c        **** ********************************************************************************
  11:main.c        **** * Copyright 2012-2014, Cypress Semiconductor Corporation. All rights reserved.
  12:main.c        **** * This software is owned by Cypress Semiconductor Corporation and is protected
ARM GAS  C:\Users\212596~1\AppData\Local\Temp\cc3UGbLV.s 			page 2


  13:main.c        **** * by and subject to worldwide patent and copyright laws and treaties.
  14:main.c        **** * Therefore, you may use this software only as provided in the license agreement
  15:main.c        **** * accompanying the software package from which you obtained this software.
  16:main.c        **** * CYPRESS AND ITS SUPPLIERS MAKE NO WARRANTY OF ANY KIND, EXPRESS OR IMPLIED,
  17:main.c        **** * WITH REGARD TO THIS SOFTWARE, INCLUDING, BUT NOT LIMITED TO, NONINFRINGEMENT,
  18:main.c        **** * IMPLIED WARRANTIES OF MERCHANTABILITY AND FITNESS FOR A PARTICULAR PURPOSE.
  19:main.c        **** *******************************************************************************/
  20:main.c        **** 
  21:main.c        **** #include <project.h>
  22:main.c        **** #include <stdio.h> 
  23:main.c        **** 
  24:main.c        **** /* Defines for AMux channels */
  25:main.c        **** #define THERM_REF_CHANNEL       (0u)
  26:main.c        **** #define THERM_SIGNAL_CHANNEL    (1u)
  27:main.c        **** 
  28:main.c        **** #define USBFS_DEVICE    (0u)
  29:main.c        **** 
  30:main.c        **** 
  31:main.c        **** /* More samples means smoother data but values may lag
  32:main.c        ****    powers of 2 make the math easier for the CPU and should be used. */
  33:main.c        **** #define SAMPLES                 (256u)
  34:main.c        **** 
  35:main.c        **** /* Degree sign */ 
  36:main.c        **** #define DEGREE                  (0xDFu)
  37:main.c        **** 
  38:main.c        **** 
  39:main.c        **** /*******************************************************************************
  40:main.c        **** * Function Name: main
  41:main.c        **** ********************************************************************************
  42:main.c        **** *
  43:main.c        **** * Summary:
  44:main.c        **** *  The main function of the Thermistor Calculator datasheet example project. 
  45:main.c        **** *  For a detailed description please refer to the project schematic.
  46:main.c        **** *
  47:main.c        **** * Parameters:
  48:main.c        **** *  None
  49:main.c        **** *
  50:main.c        **** * Return:
  51:main.c        **** *  None
  52:main.c        **** *
  53:main.c        **** *******************************************************************************/
  54:main.c        ****     int32 temperature = 0;
  55:main.c        ****     int32 absTemp;
  56:main.c        ****     int16 vRef, vTherm;
  57:main.c        ****     char str[16];
  58:main.c        **** 
  59:main.c        **** CY_ISR(function){
  43              		.loc 1 59 0
  44              		.cfi_startproc
  45              		@ args = 0, pretend = 0, frame = 0
  46              		@ frame_needed = 1, uses_anonymous_args = 0
  47 0000 80B5     		push	{r7, lr}
  48              		.cfi_def_cfa_offset 8
  49              		.cfi_offset 7, -8
  50              		.cfi_offset 14, -4
  51 0002 00AF     		add	r7, sp, #0
  52              		.cfi_def_cfa_register 7
ARM GAS  C:\Users\212596~1\AppData\Local\Temp\cc3UGbLV.s 			page 3


  60:main.c        ****         sprintf(str,"%ld.%02ldF\r\n",absTemp/100,absTemp%100);
  53              		.loc 1 60 0
  54 0004 104B     		ldr	r3, .L2
  55 0006 1B68     		ldr	r3, [r3]
  56 0008 104A     		ldr	r2, .L2+4
  57 000a 82FB0312 		smull	r1, r2, r2, r3
  58 000e 5211     		asrs	r2, r2, #5
  59 0010 DB17     		asrs	r3, r3, #31
  60 0012 D01A     		subs	r0, r2, r3
  61 0014 0C4B     		ldr	r3, .L2
  62 0016 1B68     		ldr	r3, [r3]
  63 0018 0C4A     		ldr	r2, .L2+4
  64 001a 82FB0312 		smull	r1, r2, r2, r3
  65 001e 5111     		asrs	r1, r2, #5
  66 0020 DA17     		asrs	r2, r3, #31
  67 0022 8A1A     		subs	r2, r1, r2
  68 0024 6421     		movs	r1, #100
  69 0026 01FB02F2 		mul	r2, r1, r2
  70 002a 9A1A     		subs	r2, r3, r2
  71 002c 1346     		mov	r3, r2
  72 002e 0246     		mov	r2, r0
  73 0030 0749     		ldr	r1, .L2+8
  74 0032 0848     		ldr	r0, .L2+12
  75 0034 FFF7FEFF 		bl	sprintf
  61:main.c        ****         UART_1_PutString(str);
  76              		.loc 1 61 0
  77 0038 0648     		ldr	r0, .L2+12
  78 003a FFF7FEFF 		bl	UART_1_PutString
  62:main.c        ****         timer_isr_ClearPending();
  79              		.loc 1 62 0
  80 003e FFF7FEFF 		bl	timer_isr_ClearPending
  63:main.c        **** }
  81              		.loc 1 63 0
  82 0042 00BF     		nop
  83 0044 80BD     		pop	{r7, pc}
  84              	.L3:
  85 0046 00BF     		.align	2
  86              	.L2:
  87 0048 00000000 		.word	absTemp
  88 004c 1F85EB51 		.word	1374389535
  89 0050 00000000 		.word	.LC0
  90 0054 00000000 		.word	str
  91              		.cfi_endproc
  92              	.LFE64:
  93              		.size	function, .-function
  94              		.section	.text.main,"ax",%progbits
  95              		.align	2
  96              		.global	main
  97              		.thumb
  98              		.thumb_func
  99              		.type	main, %function
 100              	main:
 101              	.LFB65:
  64:main.c        **** 
  65:main.c        **** int main()
  66:main.c        **** {
 102              		.loc 1 66 0
ARM GAS  C:\Users\212596~1\AppData\Local\Temp\cc3UGbLV.s 			page 4


 103              		.cfi_startproc
 104              		@ args = 0, pretend = 0, frame = 8
 105              		@ frame_needed = 1, uses_anonymous_args = 0
 106 0000 80B5     		push	{r7, lr}
 107              		.cfi_def_cfa_offset 8
 108              		.cfi_offset 7, -8
 109              		.cfi_offset 14, -4
 110 0002 82B0     		sub	sp, sp, #8
 111              		.cfi_def_cfa_offset 16
 112 0004 00AF     		add	r7, sp, #0
 113              		.cfi_def_cfa_register 7
  67:main.c        **** 
  68:main.c        ****     /* used to denote the first sampling time */
  69:main.c        ****     uint8 init = 0u;
 114              		.loc 1 69 0
 115 0006 0023     		movs	r3, #0
 116 0008 FB71     		strb	r3, [r7, #7]
  70:main.c        ****     
  71:main.c        ****     /* Start ADC, AMux, OpAmp components */
  72:main.c        **** 	ADC_DelSig_Start();
 117              		.loc 1 72 0
 118 000a FFF7FEFF 		bl	ADC_DelSig_Start
  73:main.c        **** 	AMux_Start();
 119              		.loc 1 73 0
 120 000e FFF7FEFF 		bl	AMux_Start
  74:main.c        **** 	Opamp_Start();
 121              		.loc 1 74 0
 122 0012 FFF7FEFF 		bl	Opamp_Start
  75:main.c        ****     UART_1_Start();
 123              		.loc 1 75 0
 124 0016 FFF7FEFF 		bl	UART_1_Start
  76:main.c        ****     Timer_1_Start();
 125              		.loc 1 76 0
 126 001a FFF7FEFF 		bl	Timer_1_Start
  77:main.c        ****     timer_isr_StartEx(function);
 127              		.loc 1 77 0
 128 001e 2B48     		ldr	r0, .L8
 129 0020 FFF7FEFF 		bl	timer_isr_StartEx
  78:main.c        ****  //   timer_isr_Start();
  79:main.c        ****     
  80:main.c        ****     CyGlobalIntEnable;
 130              		.loc 1 80 0
 131              		.syntax unified
 132              	@ 80 "main.c" 1
 133 0024 62B6     		CPSIE   i
 134              	@ 0 "" 2
 135              		.thumb
 136              		.syntax unified
 137              	.L7:
  81:main.c        ****     
  82:main.c        ****     for(;;)
  83:main.c        ****     {
  84:main.c        ****         
  85:main.c        ****         /* Read voltage across thermistor */
  86:main.c        ****         AMux_FastSelect(THERM_SIGNAL_CHANNEL);
 138              		.loc 1 86 0
 139 0026 0120     		movs	r0, #1
ARM GAS  C:\Users\212596~1\AppData\Local\Temp\cc3UGbLV.s 			page 5


 140 0028 FFF7FEFF 		bl	AMux_FastSelect
  87:main.c        ****         ADC_DelSig_StartConvert();
 141              		.loc 1 87 0
 142 002c FFF7FEFF 		bl	ADC_DelSig_StartConvert
  88:main.c        ****         ADC_DelSig_IsEndConversion(ADC_DelSig_WAIT_FOR_RESULT);
 143              		.loc 1 88 0
 144 0030 0020     		movs	r0, #0
 145 0032 FFF7FEFF 		bl	ADC_DelSig_IsEndConversion
  89:main.c        ****         vTherm = ADC_DelSig_GetResult32();
 146              		.loc 1 89 0
 147 0036 FFF7FEFF 		bl	ADC_DelSig_GetResult32
 148 003a 0346     		mov	r3, r0
 149 003c 1AB2     		sxth	r2, r3
 150 003e 244B     		ldr	r3, .L8+4
 151 0040 1A80     		strh	r2, [r3]	@ movhi
  90:main.c        ****     	
  91:main.c        ****         /* Read voltage across reference resistor */
  92:main.c        ****         AMux_FastSelect(THERM_REF_CHANNEL);
 152              		.loc 1 92 0
 153 0042 0020     		movs	r0, #0
 154 0044 FFF7FEFF 		bl	AMux_FastSelect
  93:main.c        ****         ADC_DelSig_StartConvert();
 155              		.loc 1 93 0
 156 0048 FFF7FEFF 		bl	ADC_DelSig_StartConvert
  94:main.c        ****         ADC_DelSig_IsEndConversion(ADC_DelSig_WAIT_FOR_RESULT);
 157              		.loc 1 94 0
 158 004c 0020     		movs	r0, #0
 159 004e FFF7FEFF 		bl	ADC_DelSig_IsEndConversion
  95:main.c        ****         vRef = ADC_DelSig_GetResult32();
 160              		.loc 1 95 0
 161 0052 FFF7FEFF 		bl	ADC_DelSig_GetResult32
 162 0056 0346     		mov	r3, r0
 163 0058 1AB2     		sxth	r2, r3
 164 005a 1E4B     		ldr	r3, .L8+8
 165 005c 1A80     		strh	r2, [r3]	@ movhi
  96:main.c        ****     
  97:main.c        ****         /* Find temperature in Celsius degree using the component API */
  98:main.c        ****         temperature += Thermistor_GetTemperature(Thermistor_GetResistance(vRef, vTherm));
 166              		.loc 1 98 0
 167 005e 1D4B     		ldr	r3, .L8+8
 168 0060 B3F90020 		ldrsh	r2, [r3]
 169 0064 1A4B     		ldr	r3, .L8+4
 170 0066 B3F90030 		ldrsh	r3, [r3]
 171 006a 1946     		mov	r1, r3
 172 006c 1046     		mov	r0, r2
 173 006e FFF7FEFF 		bl	Thermistor_GetResistance
 174 0072 0346     		mov	r3, r0
 175 0074 1846     		mov	r0, r3
 176 0076 FFF7FEFF 		bl	Thermistor_GetTemperature
 177 007a 0346     		mov	r3, r0
 178 007c 1A46     		mov	r2, r3
 179 007e 164B     		ldr	r3, .L8+12
 180 0080 1B68     		ldr	r3, [r3]
 181 0082 1344     		add	r3, r3, r2
 182 0084 144A     		ldr	r2, .L8+12
 183 0086 1360     		str	r3, [r2]
  99:main.c        **** 
ARM GAS  C:\Users\212596~1\AppData\Local\Temp\cc3UGbLV.s 			page 6


 100:main.c        ****         /* If we are initialized */
 101:main.c        ****         if(init)
 184              		.loc 1 101 0
 185 0088 FB79     		ldrb	r3, [r7, #7]	@ zero_extendqisi2
 186 008a 002B     		cmp	r3, #0
 187 008c 0AD0     		beq	.L5
 102:main.c        ****         {
 103:main.c        ****             /* Averaging over a number of samples, gives a much smoother look to the numbers */
 104:main.c        ****             temperature -= (temperature/SAMPLES);
 188              		.loc 1 104 0
 189 008e 124B     		ldr	r3, .L8+12
 190 0090 1B68     		ldr	r3, [r3]
 191 0092 1A46     		mov	r2, r3
 192 0094 104B     		ldr	r3, .L8+12
 193 0096 1B68     		ldr	r3, [r3]
 194 0098 1B0A     		lsrs	r3, r3, #8
 195 009a D31A     		subs	r3, r2, r3
 196 009c 1A46     		mov	r2, r3
 197 009e 0E4B     		ldr	r3, .L8+12
 198 00a0 1A60     		str	r2, [r3]
 199 00a2 05E0     		b	.L6
 200              	.L5:
 105:main.c        ****         }else{
 106:main.c        ****             /* First time through the loop, no data, so replicate the first value */
 107:main.c        ****             temperature *= SAMPLES;
 201              		.loc 1 107 0
 202 00a4 0C4B     		ldr	r3, .L8+12
 203 00a6 1B68     		ldr	r3, [r3]
 204 00a8 1B02     		lsls	r3, r3, #8
 205 00aa 1A46     		mov	r2, r3
 206 00ac 0A4B     		ldr	r3, .L8+12
 207 00ae 1A60     		str	r2, [r3]
 208              	.L6:
 108:main.c        ****         }
 109:main.c        ****         init = 1;
 209              		.loc 1 109 0
 210 00b0 0123     		movs	r3, #1
 211 00b2 FB71     		strb	r3, [r7, #7]
 110:main.c        ****        
 111:main.c        ****         
 112:main.c        ****         
 113:main.c        ****         absTemp = temperature;
 212              		.loc 1 113 0
 213 00b4 084B     		ldr	r3, .L8+12
 214 00b6 1B68     		ldr	r3, [r3]
 215 00b8 084A     		ldr	r2, .L8+16
 216 00ba 1360     		str	r3, [r2]
 114:main.c        ****         absTemp /= SAMPLES;
 217              		.loc 1 114 0
 218 00bc 074B     		ldr	r3, .L8+16
 219 00be 1B68     		ldr	r3, [r3]
 220 00c0 1B0A     		lsrs	r3, r3, #8
 221 00c2 1A46     		mov	r2, r3
 222 00c4 054B     		ldr	r3, .L8+16
 223 00c6 1A60     		str	r2, [r3]
 115:main.c        ****         
 116:main.c        ****         //sprintf(str,"%ld.%02ldC\r\n",absTemp/100,absTemp%100);
ARM GAS  C:\Users\212596~1\AppData\Local\Temp\cc3UGbLV.s 			page 7


 117:main.c        ****         //UART_1_PutString(str);
 118:main.c        ****         
 119:main.c        ****         
 120:main.c        ****       //    CyDelay(500);
 121:main.c        ****     }
 224              		.loc 1 121 0
 225 00c8 ADE7     		b	.L7
 226              	.L9:
 227 00ca 00BF     		.align	2
 228              	.L8:
 229 00cc 00000000 		.word	function
 230 00d0 00000000 		.word	vTherm
 231 00d4 00000000 		.word	vRef
 232 00d8 00000000 		.word	temperature
 233 00dc 00000000 		.word	absTemp
 234              		.cfi_endproc
 235              	.LFE65:
 236              		.size	main, .-main
 237              		.text
 238              	.Letext0:
 239              		.file 2 "c:\\program files (x86)\\cypress\\psoc creator\\4.1\\psoc creator\\import\\gnu\\arm\\5.4.
 240              		.file 3 "c:\\program files (x86)\\cypress\\psoc creator\\4.1\\psoc creator\\import\\gnu\\arm\\5.4.
 241              		.file 4 "Generated_Source\\PSoC5/cytypes.h"
 242              		.file 5 "Generated_Source\\PSoC5/core_cm3.h"