ARM GAS  C:\Users\212596~1\AppData\Local\Temp\cc3UGbLV.s 			page 1


   1              		.syntax unified
   2              		.cpu cortex-m3
   3              		.fpu softvfp
   4              		.eabi_attribute 20, 1
   5              		.eabi_attribute 21, 1
   6              		.eabi_attribute 23, 3
   7              		.eabi_attribute 24, 1
   8              		.eabi_attribute 25, 1
   9              		.eabi_attribute 26, 1
  10              		.eabi_attribute 30, 6
  11              		.eabi_attribute 34, 1
  12              		.eabi_attribute 18, 4
  13              		.thumb
  14              		.syntax unified
  15              		.file	"main.c"
  16              		.text
  17              	.Ltext0:
  18              		.cfi_sections	.debug_frame
  19              		.global	temperature
  20              		.bss
  21              		.align	2
  22              		.type	temperature, %object
  23              		.size	temperature, 4
  24              	temperature:
  25 0000 00000000 		.space	4
  26              		.comm	absTemp,4,4
  27              		.comm	vRef,2,2
  28              		.comm	vTherm,2,2
  29              		.comm	str,16,4
  30              		.section	.rodata
  31              		.align	2
  32              	.LC0:
  33 0000 256C642E 		.ascii	"%ld.%02ldF\015\012\000"
  33      2530326C 
  33      64460D0A 
  33      00
  34              		.section	.text.function,"ax",%progbits
  35              		.align	2
  36              		.global	function
  37              		.thumb
  38              		.thumb_func
  39              		.type	function, %function
  40              	function:
  41              	.LFB64:
  42              		.file 1 "main.c"
   1:main.c        **** /*******************************************************************************
   2:main.c        **** * File Name: main.c
   3:main.c        **** *
   4:main.c        **** * Version: 1.20
   5:main.c        **** *
   6:main.c        **** * Description:
   7:main.c        **** *  This is source code for the datasheet example of the Thermistor Calculator
   8:main.c        **** *  component.
   9:main.c        **** *
  10:main.c        **** ********************************************************************************
  11:main.c        **** * Copyright 2012-2014, Cypress Semiconductor Corporation. All rights reserved.
  12:main.c        **** * This software is owned by Cypress Semiconductor Corporation and is protected
ARM GAS  C:\Users\212596~1\AppData\Local\Temp\cc3UGbLV.s 			page 2


  13:main.c        **** * by and subject to worldwide patent and copyright laws and treaties.
  14:main.c        **** * Therefore, you may use this software only as provided in the license agreement
  15:main.c        **** * accompanying the software package from which you obtained this software.
  16:main.c        **** * CYPRESS AND ITS SUPPLIERS MAKE NO WARRANTY OF ANY KIND, EXPRESS OR IMPLIED,
  17:main.c        **** * WITH REGARD TO THIS SOFTWARE, INCLUDING, BUT NOT LIMITED TO, NONINFRINGEMENT,
  18:main.c        **** * IMPLIED WARRANTIES OF MERCHANTABILITY AND FITNESS FOR A PARTICULAR PURPOSE.
  19:main.c        **** *******************************************************************************/
  20:main.c        **** 
  21:main.c        **** #include <project.h>
  22:main.c        **** #include <stdio.h> 
  23:main.c        **** 
  24:main.c        **** /* Defines for AMux channels */
  25:main.c        **** #define THERM_REF_CHANNEL       (0u)
  26:main.c        **** #define THERM_SIGNAL_CHANNEL    (1u)
  27:main.c        **** 
  28:main.c        **** #define USBFS_DEVICE    (0u)
  29:main.c        **** 
  30:main.c        **** 
  31:main.c        **** /* More samples means smoother data but values may lag
  32:main.c        ****    powers of 2 make the math easier for the CPU and should be used. */
  33:main.c        **** #define SAMPLES                 (256u)
  34:main.c        **** 
  35:main.c        **** /* Degree sign */ 
  36:main.c        **** #define DEGREE                  (0xDFu)
  37:main.c        **** 
  38:main.c        **** 
  39:main.c        **** /*******************************************************************************
  40:main.c        **** * Function Name: main
  41:main.c        **** ********************************************************************************
  42:main.c        **** *
  43:main.c        **** * Summary:
  44:main.c        **** *  The main function of the Thermistor Calculator datasheet example project. 
  45:main.c        **** *  For a detailed description please refer to the project schematic.
  46:main.c        **** *
  47:main.c        **** * Parameters:
  48:main.c        **** *  None
  49:main.c        **** *
  50:main.c        **** * Return:
  51:main.c        **** *  None
  52:main.c        **** *
  53:main.c        **** *******************************************************************************/
  54:main.c        ****     int32 temperature = 0;
  55:main.c        ****     int32 absTemp;
  56:main.c        ****     int16 vRef, vTherm;
  57:main.c        ****     char str[16];
  58:main.c        **** 
  59:main.c        **** CY_ISR(function){
  43              		.loc 1 59 0
  44              		.cfi_startproc
  45              		@ args = 0, pretend = 0, frame = 0
  46              		@ frame_needed = 1, uses_anonymous_args = 0
  47 0000 80B5     		push	{r7, lr}
  48              		.cfi_def_cfa_offset 8
  49              		.cfi_offset 7, -8
  50              		.cfi_offset 14, -4
  51 0002 00AF     		add	r7, sp, #0
  52              		.cfi_def_cfa_register 7
ARM GAS  C:\Users\212596~1\AppData\Local\Temp\cc3UGbLV.s 			page 3


  60:main.c        ****         sprintf(str,"%ld.%02ldF\r\n",absTemp/100,absTemp%100);
  53              		.loc 1 60 0
  54 0004 104B     		ldr	r3, .L2
  55 0006 1B68     		ldr	r3, [r3]
  56 0008 104A     		ldr	r2, .L2+4
  57 000a 82FB0312 		smull	r1, r2, r2, r3
  58 000e 5211     		asrs	r2, r2, #5
  59 0010 DB17     		asrs	r3, r3, #31
  60 0012 D01A     		subs	r0, r2, r3
  61 0014 0C4B     		ldr	r3, .L2
  62 0016 1B68     		ldr	r3, [r3]
  63 0018 0C4A     		ldr	r2, .L2+4
  64 001a 82FB0312 		smull	r1, r2, r2, r3
  65 001e 5111     		asrs	r1, r2, #5
  66 0020 DA17     		asrs	r2, r3, #31
  67 0022 8A1A     		subs	r2, r1, r2
  68 0024 6421     		movs	r1, #100
  69 0026 01FB02F2 		mul	r2, r1, r2
  70 002a 9A1A     		subs	r2, r3, r2
  71 002c 1346     		mov	r3, r2
  72 002e 0246     		mov	r2, r0
  73 0030 0749     		ldr	r1, .L2+8
  74 0032 0848     		ldr	r0, .L2+12
  75 0034 FFF7FEFF 		bl	sprintf
  61:main.c        ****         UART_1_PutString(str);
  76              		.loc 1 61 0
  77 0038 0648     		ldr	r0, .L2+12
  78 003a FFF7FEFF 		bl	UART_1_PutString
  62:main.c        ****         timer_isr_ClearPending();
  79              		.loc 1 62 0
  80 003e FFF7FEFF 		bl	timer_isr_ClearPending
  63:main.c        **** }
  81              		.loc 1 63 0
  82 0042 00BF     		nop
  83 0044 80BD     		pop	{r7, pc}
  84              	.L3:
  85 0046 00BF     		.align	2
  86              	.L2:
  87 0048 00000000 		.word	absTemp
  88 004c 1F85EB51 		.word	1374389535
  89 0050 00000000 		.word	.LC0
  90 0054 00000000 		.word	str
  91              		.cfi_endproc
  92              	.LFE64:
  93              		.size	function, .-function
  94              		.section	.text.main,"ax",%progbits
  95              		.align	2
  96              		.global	main
  97              		.thumb
  98              		.thumb_func
  99              		.type	main, %function
 100              	main:
 101              	.LFB65:
  64:main.c        **** 
  65:main.c        **** int main()
  66:main.c        **** {
 102              		.loc 1 66 0
ARM GAS  C:\Users\212596~1\AppData\Local\Temp\cc3UGbLV.s 			page 4


 103              		.cfi_startproc
 104              		@ args = 0, pretend = 0, frame = 8
 105              		@ frame_needed = 1, uses_anonymous_args = 0
 106 0000 80B5     		push	{r7, lr}
 107              		.cfi_def_cfa_offset 8
 108              		.cfi_offset 7, -8
 109              		.cfi_offset 14, -4
 110 0002 82B0     		sub	sp, sp, #8
 111              		.cfi_def_cfa_offset 16
 112 0004 00AF     		add	r7, sp, #0
 113              		.cfi_def_cfa_register 7
  67:main.c        **** 
  68:main.c        ****     /* used to denote the first sampling time */
  69:main.c        ****     uint8 init = 0u;
 114              		.loc 1 69 0
 115 0006 0023     		movs	r3, #0
 116 0008 FB71     		strb	r3, [r7, #7]
  70:main.c        ****     
  71:main.c        ****     /* Start ADC, AMux, OpAmp components */
  72:main.c        **** 	ADC_DelSig_Start();
 117              		.loc 1 72 0
 118 000a FFF7FEFF 		bl	ADC_DelSig_Start
  73:main.c        **** 	AMux_Start();
 119              		.loc 1 73 0
 120 000e FFF7FEFF 		bl	AMux_Start
  74:main.c        **** 	Opamp_Start();
 121              		.loc 1 74 0
 122 0012 FFF7FEFF 		bl	Opamp_Start
  75:main.c        ****     UART_1_Start();
 123              		.loc 1 75 0
 124 0016 FFF7FEFF 		bl	UART_1_Start
  76:main.c        ****     Timer_1_Start();
 125              		.loc 1 76 0
 126 001a FFF7FEFF 		bl	Timer_1_Start
  77:main.c        ****     timer_isr_StartEx(function);
 127              		.loc 1 77 0
 128 001e 2B48     		ldr	r0, .L8
 129 0020 FFF7FEFF 		bl	timer_isr_StartEx
  78:main.c        ****  //   timer_isr_Start();
  79:main.c        ****     
  80:main.c        ****     CyGlobalIntEnable;
 130              		.loc 1 80 0
 131              		.syntax unified
 132              	@ 80 "main.c" 1
 133 0024 62B6     		CPSIE   i
 134              	@ 0 "" 2
 135              		.thumb
 136              		.syntax unified
 137              	.L7:
  81:main.c        ****     
  82:main.c        ****     for(;;)
  83:main.c        ****     {
  84:main.c        ****         
  85:main.c        ****         /* Read voltage across thermistor */
  86:main.c        ****         AMux_FastSelect(THERM_SIGNAL_CHANNEL);
 138              		.loc 1 86 0
 139 0026 0120     		movs	r0, #1
ARM GAS  C:\Users\212596~1\AppData\Local\Temp\cc3UGbLV.s 			page 5


 140 0028 FFF7FEFF 		bl	AMux_FastSelect
  87:main.c        ****         ADC_DelSig_StartConvert();
 141              		.loc 1 87 0
 142 002c FFF7FEFF 		bl	ADC_DelSig_StartConvert
  88:main.c        ****         ADC_DelSig_IsEndConversion(ADC_DelSig_WAIT_FOR_RESULT);
 143              		.loc 1 88 0
 144 0030 0020     		movs	r0, #0
 145 0032 FFF7FEFF 		bl	ADC_DelSig_IsEndConversion
  89:main.c        ****         vTherm = ADC_DelSig_GetResult32();
 146              		.loc 1 89 0
 147 0036 FFF7FEFF 		bl	ADC_DelSig_GetResult32
 148 003a 0346     		mov	r3, r0
 149 003c 1AB2     		sxth	r2, r3
 150 003e 244B     		ldr	r3, .L8+4
 151 0040 1A80     		strh	r2, [r3]	@ movhi
  90:main.c        ****     	
  91:main.c        ****         /* Read voltage across reference resistor */
  92:main.c        ****         AMux_FastSelect(THERM_REF_CHANNEL);
 152              		.loc 1 92 0
 153 0042 0020     		movs	r0, #0
 154 0044 FFF7FEFF 		bl	AMux_FastSelect
  93:main.c        ****         ADC_DelSig_StartConvert();
 155              		.loc 1 93 0
 156 0048 FFF7FEFF 		bl	ADC_DelSig_StartConvert
  94:main.c        ****         ADC_DelSig_IsEndConversion(ADC_DelSig_WAIT_FOR_RESULT);
 157              		.loc 1 94 0
 158 004c 0020     		movs	r0, #0
 159 004e FFF7FEFF 		bl	ADC_DelSig_IsEndConversion
  95:main.c        ****         vRef = ADC_DelSig_GetResult32();
 160              		.loc 1 95 0
 161 0052 FFF7FEFF 		bl	ADC_DelSig_GetResult32
 162 0056 0346     		mov	r3, r0
 163 0058 1AB2     		sxth	r2, r3
 164 005a 1E4B     		ldr	r3, .L8+8
 165 005c 1A80     		strh	r2, [r3]	@ movhi
  96:main.c        ****     
  97:main.c        ****         /* Find temperature in Celsius degree using the component API */
  98:main.c        ****         temperature += Thermistor_GetTemperature(Thermistor_GetResistance(vRef, vTherm));
 166              		.loc 1 98 0
 167 005e 1D4B     		ldr	r3, .L8+8
 168 0060 B3F90020 		ldrsh	r2, [r3]
 169 0064 1A4B     		ldr	r3, .L8+4
 170 0066 B3F90030 		ldrsh	r3, [r3]
 171 006a 1946     		mov	r1, r3
 172 006c 1046     		mov	r0, r2
 173 006e FFF7FEFF 		bl	Thermistor_GetResistance
 174 0072 0346     		mov	r3, r0
 175 0074 1846     		mov	r0, r3
 176 0076 FFF7FEFF 		bl	Thermistor_GetTemperature
 177 007a 0346     		mov	r3, r0
 178 007c 1A46     		mov	r2, r3
 179 007e 164B     		ldr	r3, .L8+12
 180 0080 1B68     		ldr	r3, [r3]
 181 0082 1344     		add	r3, r3, r2
 182 0084 144A     		ldr	r2, .L8+12
 183 0086 1360     		str	r3, [r2]
  99:main.c        **** 
ARM GAS  C:\Users\212596~1\AppData\Local\Temp\cc3UGbLV.s 			page 6


 100:main.c        ****         /* If we are initialized */
 101:main.c        ****         if(init)
 184              		.loc 1 101 0
 185 0088 FB79     		ldrb	r3, [r7, #7]	@ zero_extendqisi2
 186 008a 002B     		cmp	r3, #0
 187 008c 0AD0     		beq	.L5
 102:main.c        ****         {
 103:main.c        ****             /* Averaging over a number of samples, gives a much smoother look to the numbers */
 104:main.c        ****             temperature -= (temperature/SAMPLES);
 188              		.loc 1 104 0
 189 008e 124B     		ldr	r3, .L8+12
 190 0090 1B68     		ldr	r3, [r3]
 191 0092 1A46     		mov	r2, r3
 192 0094 104B     		ldr	r3, .L8+12
 193 0096 1B68     		ldr	r3, [r3]
 194 0098 1B0A     		lsrs	r3, r3, #8
 195 009a D31A     		subs	r3, r2, r3
 196 009c 1A46     		mov	r2, r3
 197 009e 0E4B     		ldr	r3, .L8+12
 198 00a0 1A60     		str	r2, [r3]
 199 00a2 05E0     		b	.L6
 200              	.L5:
 105:main.c        ****         }else{
 106:main.c        ****             /* First time through the loop, no data, so replicate the first value */
 107:main.c        ****             temperature *= SAMPLES;
 201              		.loc 1 107 0
 202 00a4 0C4B     		ldr	r3, .L8+12
 203 00a6 1B68     		ldr	r3, [r3]
 204 00a8 1B02     		lsls	r3, r3, #8
 205 00aa 1A46     		mov	r2, r3
 206 00ac 0A4B     		ldr	r3, .L8+12
 207 00ae 1A60     		str	r2, [r3]
 208              	.L6:
 108:main.c        ****         }
 109:main.c        ****         init = 1;
 209              		.loc 1 109 0
 210 00b0 0123     		movs	r3, #1
 211 00b2 FB71     		strb	r3, [r7, #7]
 110:main.c        ****        
 111:main.c        ****         
 112:main.c        ****         
 113:main.c        ****         absTemp = temperature;
 212              		.loc 1 113 0
 213 00b4 084B     		ldr	r3, .L8+12
 214 00b6 1B68     		ldr	r3, [r3]
 215 00b8 084A     		ldr	r2, .L8+16
 216 00ba 1360     		str	r3, [r2]
 114:main.c        ****         absTemp /= SAMPLES;
 217              		.loc 1 114 0
 218 00bc 074B     		ldr	r3, .L8+16
 219 00be 1B68     		ldr	r3, [r3]
 220 00c0 1B0A     		lsrs	r3, r3, #8
 221 00c2 1A46     		mov	r2, r3
 222 00c4 054B     		ldr	r3, .L8+16
 223 00c6 1A60     		str	r2, [r3]
 115:main.c        ****         
 116:main.c        ****         //sprintf(str,"%ld.%02ldC\r\n",absTemp/100,absTemp%100);
ARM GAS  C:\Users\212596~1\AppData\Local\Temp\cc3UGbLV.s 			page 7


 117:main.c        ****         //UART_1_PutString(str);
 118:main.c        ****         
 119:main.c        ****         
 120:main.c        ****       //    CyDelay(500);
 121:main.c        ****     }
 224              		.loc 1 121 0
 225 00c8 ADE7     		b	.L7
 226              	.L9:
 227 00ca 00BF     		.align	2
 228              	.L8:
 229 00cc 00000000 		.word	function
 230 00d0 00000000 		.word	vTherm
 231 00d4 00000000 		.word	vRef
 232 00d8 00000000 		.word	temperature
 233 00dc 00000000 		.word	absTemp
 234              		.cfi_endproc
 235              	.LFE65:
 236              		.size	main, .-main
 237              		.text
 238              	.Letext0:
 239              		.file 2 "c:\\program files (x86)\\cypress\\psoc creator\\4.1\\psoc creator\\import\\gnu\\arm\\5.4.
 240              		.file 3 "c:\\program files (x86)\\cypress\\psoc creator\\4.1\\psoc creator\\import\\gnu\\arm\\5.4.
 241              		.file 4 "Generated_Source\\PSoC5/cytypes.h"
 242              		.file 5 "Generated_Source\\PSoC5/core_cm3.h"
 243              		.section	.debug_info,"",%progbits
 244              	.Ldebug_info0:
 245 0000 74010000 		.4byte	0x174
 246 0004 0400     		.2byte	0x4
 247 0006 00000000 		.4byte	.Ldebug_abbrev0
 248 000a 04       		.byte	0x4
 249 000b 01       		.uleb128 0x1
 250 000c 00000000 		.4byte	.LASF24
 251 0010 0C       		.byte	0xc
 252 0011 81010000 		.4byte	.LASF25
 253 0015 C2000000 		.4byte	.LASF26
 254 0019 00000000 		.4byte	.Ldebug_ranges0+0
 255 001d 00000000 		.4byte	0
 256 0021 00000000 		.4byte	.Ldebug_line0
 257 0025 02       		.uleb128 0x2
 258 0026 01       		.byte	0x1
 259 0027 06       		.byte	0x6
 260 0028 B7010000 		.4byte	.LASF0
 261 002c 02       		.uleb128 0x2
 262 002d 01       		.byte	0x1
 263 002e 08       		.byte	0x8
 264 002f F9000000 		.4byte	.LASF1
 265 0033 02       		.uleb128 0x2
 266 0034 02       		.byte	0x2
 267 0035 05       		.byte	0x5
 268 0036 8D010000 		.4byte	.LASF2
 269 003a 02       		.uleb128 0x2
 270 003b 02       		.byte	0x2
 271 003c 07       		.byte	0x7
 272 003d 9E000000 		.4byte	.LASF3
 273 0041 03       		.uleb128 0x3
 274 0042 94000000 		.4byte	.LASF9
 275 0046 02       		.byte	0x2
ARM GAS  C:\Users\212596~1\AppData\Local\Temp\cc3UGbLV.s 			page 8


 276 0047 3F       		.byte	0x3f
 277 0048 4C000000 		.4byte	0x4c
 278 004c 02       		.uleb128 0x2
 279 004d 04       		.byte	0x4
 280 004e 05       		.byte	0x5
 281 004f 9D010000 		.4byte	.LASF4
 282 0053 02       		.uleb128 0x2
 283 0054 04       		.byte	0x4
 284 0055 07       		.byte	0x7
 285 0056 0D010000 		.4byte	.LASF5
 286 005a 02       		.uleb128 0x2
 287 005b 08       		.byte	0x8
 288 005c 05       		.byte	0x5
 289 005d 73010000 		.4byte	.LASF6
 290 0061 02       		.uleb128 0x2
 291 0062 08       		.byte	0x8
 292 0063 07       		.byte	0x7
 293 0064 4B010000 		.4byte	.LASF7
 294 0068 04       		.uleb128 0x4
 295 0069 04       		.byte	0x4
 296 006a 05       		.byte	0x5
 297 006b 696E7400 		.ascii	"int\000"
 298 006f 02       		.uleb128 0x2
 299 0070 04       		.byte	0x4
 300 0071 07       		.byte	0x7
 301 0072 3E010000 		.4byte	.LASF8
 302 0076 03       		.uleb128 0x3
 303 0077 62010000 		.4byte	.LASF10
 304 007b 03       		.byte	0x3
 305 007c 2C       		.byte	0x2c
 306 007d 41000000 		.4byte	0x41
 307 0081 05       		.uleb128 0x5
 308 0082 97010000 		.4byte	.LASF11
 309 0086 04       		.byte	0x4
 310 0087 9201     		.2byte	0x192
 311 0089 2C000000 		.4byte	0x2c
 312 008d 05       		.uleb128 0x5
 313 008e 07010000 		.4byte	.LASF12
 314 0092 04       		.byte	0x4
 315 0093 9601     		.2byte	0x196
 316 0095 33000000 		.4byte	0x33
 317 0099 05       		.uleb128 0x5
 318 009a 1F010000 		.4byte	.LASF13
 319 009e 04       		.byte	0x4
 320 009f 9701     		.2byte	0x197
 321 00a1 4C000000 		.4byte	0x4c
 322 00a5 02       		.uleb128 0x2
 323 00a6 04       		.byte	0x4
 324 00a7 04       		.byte	0x4
 325 00a8 8E000000 		.4byte	.LASF14
 326 00ac 02       		.uleb128 0x2
 327 00ad 08       		.byte	0x8
 328 00ae 04       		.byte	0x4
 329 00af 32010000 		.4byte	.LASF15
 330 00b3 02       		.uleb128 0x2
 331 00b4 01       		.byte	0x1
 332 00b5 08       		.byte	0x8
ARM GAS  C:\Users\212596~1\AppData\Local\Temp\cc3UGbLV.s 			page 9


 333 00b6 88010000 		.4byte	.LASF16
 334 00ba 02       		.uleb128 0x2
 335 00bb 08       		.byte	0x8
 336 00bc 04       		.byte	0x4
 337 00bd A6010000 		.4byte	.LASF17
 338 00c1 02       		.uleb128 0x2
 339 00c2 04       		.byte	0x4
 340 00c3 07       		.byte	0x7
 341 00c4 6A010000 		.4byte	.LASF18
 342 00c8 06       		.uleb128 0x6
 343 00c9 C3010000 		.4byte	.LASF27
 344 00cd 01       		.byte	0x1
 345 00ce 3B       		.byte	0x3b
 346 00cf 00000000 		.4byte	.LFB64
 347 00d3 58000000 		.4byte	.LFE64-.LFB64
 348 00d7 01       		.uleb128 0x1
 349 00d8 9C       		.byte	0x9c
 350 00d9 07       		.uleb128 0x7
 351 00da 39010000 		.4byte	.LASF28
 352 00de 01       		.byte	0x1
 353 00df 41       		.byte	0x41
 354 00e0 68000000 		.4byte	0x68
 355 00e4 00000000 		.4byte	.LFB65
 356 00e8 E0000000 		.4byte	.LFE65-.LFB65
 357 00ec 01       		.uleb128 0x1
 358 00ed 9C       		.byte	0x9c
 359 00ee 01010000 		.4byte	0x101
 360 00f2 08       		.uleb128 0x8
 361 00f3 B1000000 		.4byte	.LASF29
 362 00f7 01       		.byte	0x1
 363 00f8 45       		.byte	0x45
 364 00f9 81000000 		.4byte	0x81
 365 00fd 02       		.uleb128 0x2
 366 00fe 91       		.byte	0x91
 367 00ff 77       		.sleb128 -9
 368 0100 00       		.byte	0
 369 0101 09       		.uleb128 0x9
 370 0102 25010000 		.4byte	.LASF19
 371 0106 05       		.byte	0x5
 372 0107 1207     		.2byte	0x712
 373 0109 0D010000 		.4byte	0x10d
 374 010d 0A       		.uleb128 0xa
 375 010e 76000000 		.4byte	0x76
 376 0112 0B       		.uleb128 0xb
 377 0113 B6000000 		.4byte	.LASF20
 378 0117 01       		.byte	0x1
 379 0118 36       		.byte	0x36
 380 0119 99000000 		.4byte	0x99
 381 011d 05       		.uleb128 0x5
 382 011e 03       		.byte	0x3
 383 011f 00000000 		.4byte	temperature
 384 0123 0B       		.uleb128 0xb
 385 0124 CC010000 		.4byte	.LASF21
 386 0128 01       		.byte	0x1
 387 0129 37       		.byte	0x37
 388 012a 99000000 		.4byte	0x99
 389 012e 05       		.uleb128 0x5
ARM GAS  C:\Users\212596~1\AppData\Local\Temp\cc3UGbLV.s 			page 10


 390 012f 03       		.byte	0x3
 391 0130 00000000 		.4byte	absTemp
 392 0134 0B       		.uleb128 0xb
 393 0135 B2010000 		.4byte	.LASF22
 394 0139 01       		.byte	0x1
 395 013a 38       		.byte	0x38
 396 013b 8D000000 		.4byte	0x8d
 397 013f 05       		.uleb128 0x5
 398 0140 03       		.byte	0x3
 399 0141 00000000 		.4byte	vRef
 400 0145 0B       		.uleb128 0xb
 401 0146 D4010000 		.4byte	.LASF23
 402 014a 01       		.byte	0x1
 403 014b 38       		.byte	0x38
 404 014c 8D000000 		.4byte	0x8d
 405 0150 05       		.uleb128 0x5
 406 0151 03       		.byte	0x3
 407 0152 00000000 		.4byte	vTherm
 408 0156 0C       		.uleb128 0xc
 409 0157 B3000000 		.4byte	0xb3
 410 015b 66010000 		.4byte	0x166
 411 015f 0D       		.uleb128 0xd
 412 0160 C1000000 		.4byte	0xc1
 413 0164 0F       		.byte	0xf
 414 0165 00       		.byte	0
 415 0166 0E       		.uleb128 0xe
 416 0167 73747200 		.ascii	"str\000"
 417 016b 01       		.byte	0x1
 418 016c 39       		.byte	0x39
 419 016d 56010000 		.4byte	0x156
 420 0171 05       		.uleb128 0x5
 421 0172 03       		.byte	0x3
 422 0173 00000000 		.4byte	str
 423 0177 00       		.byte	0
 424              		.section	.debug_abbrev,"",%progbits
 425              	.Ldebug_abbrev0:
 426 0000 01       		.uleb128 0x1
 427 0001 11       		.uleb128 0x11
 428 0002 01       		.byte	0x1
 429 0003 25       		.uleb128 0x25
 430 0004 0E       		.uleb128 0xe
 431 0005 13       		.uleb128 0x13
 432 0006 0B       		.uleb128 0xb
 433 0007 03       		.uleb128 0x3
 434 0008 0E       		.uleb128 0xe
 435 0009 1B       		.uleb128 0x1b
 436 000a 0E       		.uleb128 0xe
 437 000b 55       		.uleb128 0x55
 438 000c 17       		.uleb128 0x17
 439 000d 11       		.uleb128 0x11
 440 000e 01       		.uleb128 0x1
 441 000f 10       		.uleb128 0x10
 442 0010 17       		.uleb128 0x17
 443 0011 00       		.byte	0
 444 0012 00       		.byte	0
 445 0013 02       		.uleb128 0x2
 446 0014 24       		.uleb128 0x24
ARM GAS  C:\Users\212596~1\AppData\Local\Temp\cc3UGbLV.s 			page 11


 447 0015 00       		.byte	0
 448 0016 0B       		.uleb128 0xb
 449 0017 0B       		.uleb128 0xb
 450 0018 3E       		.uleb128 0x3e
 451 0019 0B       		.uleb128 0xb
 452 001a 03       		.uleb128 0x3
 453 001b 0E       		.uleb128 0xe
 454 001c 00       		.byte	0
 455 001d 00       		.byte	0
 456 001e 03       		.uleb128 0x3
 457 001f 16       		.uleb128 0x16
 458 0020 00       		.byte	0
 459 0021 03       		.uleb128 0x3
 460 0022 0E       		.uleb128 0xe
 461 0023 3A       		.uleb128 0x3a
 462 0024 0B       		.uleb128 0xb
 463 0025 3B       		.uleb128 0x3b
 464 0026 0B       		.uleb128 0xb
 465 0027 49       		.uleb128 0x49
 466 0028 13       		.uleb128 0x13
 467 0029 00       		.byte	0
 468 002a 00       		.byte	0
 469 002b 04       		.uleb128 0x4
 470 002c 24       		.uleb128 0x24
 471 002d 00       		.byte	0
 472 002e 0B       		.uleb128 0xb
 473 002f 0B       		.uleb128 0xb
 474 0030 3E       		.uleb128 0x3e
 475 0031 0B       		.uleb128 0xb
 476 0032 03       		.uleb128 0x3
 477 0033 08       		.uleb128 0x8
 478 0034 00       		.byte	0
 479 0035 00       		.byte	0
 480 0036 05       		.uleb128 0x5
 481 0037 16       		.uleb128 0x16
 482 0038 00       		.byte	0
 483 0039 03       		.uleb128 0x3
 484 003a 0E       		.uleb128 0xe
 485 003b 3A       		.uleb128 0x3a
 486 003c 0B       		.uleb128 0xb
 487 003d 3B       		.uleb128 0x3b
 488 003e 05       		.uleb128 0x5
 489 003f 49       		.uleb128 0x49
 490 0040 13       		.uleb128 0x13
 491 0041 00       		.byte	0
 492 0042 00       		.byte	0
 493 0043 06       		.uleb128 0x6
 494 0044 2E       		.uleb128 0x2e
 495 0045 00       		.byte	0
 496 0046 3F       		.uleb128 0x3f
 497 0047 19       		.uleb128 0x19
 498 0048 03       		.uleb128 0x3
 499 0049 0E       		.uleb128 0xe
 500 004a 3A       		.uleb128 0x3a
 501 004b 0B       		.uleb128 0xb
 502 004c 3B       		.uleb128 0x3b
 503 004d 0B       		.uleb128 0xb
ARM GAS  C:\Users\212596~1\AppData\Local\Temp\cc3UGbLV.s 			page 12


 504 004e 27       		.uleb128 0x27
 505 004f 19       		.uleb128 0x19
 506 0050 11       		.uleb128 0x11
 507 0051 01       		.uleb128 0x1
 508 0052 12       		.uleb128 0x12
 509 0053 06       		.uleb128 0x6
 510 0054 40       		.uleb128 0x40
 511 0055 18       		.uleb128 0x18
 512 0056 9642     		.uleb128 0x2116
 513 0058 19       		.uleb128 0x19
 514 0059 00       		.byte	0
 515 005a 00       		.byte	0
 516 005b 07       		.uleb128 0x7
 517 005c 2E       		.uleb128 0x2e
 518 005d 01       		.byte	0x1
 519 005e 3F       		.uleb128 0x3f
 520 005f 19       		.uleb128 0x19
 521 0060 03       		.uleb128 0x3
 522 0061 0E       		.uleb128 0xe
 523 0062 3A       		.uleb128 0x3a
 524 0063 0B       		.uleb128 0xb
 525 0064 3B       		.uleb128 0x3b
 526 0065 0B       		.uleb128 0xb
 527 0066 49       		.uleb128 0x49
 528 0067 13       		.uleb128 0x13
 529 0068 11       		.uleb128 0x11
 530 0069 01       		.uleb128 0x1
 531 006a 12       		.uleb128 0x12
 532 006b 06       		.uleb128 0x6
 533 006c 40       		.uleb128 0x40
 534 006d 18       		.uleb128 0x18
 535 006e 9642     		.uleb128 0x2116
 536 0070 19       		.uleb128 0x19
 537 0071 01       		.uleb128 0x1
 538 0072 13       		.uleb128 0x13
 539 0073 00       		.byte	0
 540 0074 00       		.byte	0
 541 0075 08       		.uleb128 0x8
 542 0076 34       		.uleb128 0x34
 543 0077 00       		.byte	0
 544 0078 03       		.uleb128 0x3
 545 0079 0E       		.uleb128 0xe
 546 007a 3A       		.uleb128 0x3a
 547 007b 0B       		.uleb128 0xb
 548 007c 3B       		.uleb128 0x3b
 549 007d 0B       		.uleb128 0xb
 550 007e 49       		.uleb128 0x49
 551 007f 13       		.uleb128 0x13
 552 0080 02       		.uleb128 0x2
 553 0081 18       		.uleb128 0x18
 554 0082 00       		.byte	0
 555 0083 00       		.byte	0
 556 0084 09       		.uleb128 0x9
 557 0085 34       		.uleb128 0x34
 558 0086 00       		.byte	0
 559 0087 03       		.uleb128 0x3
 560 0088 0E       		.uleb128 0xe
ARM GAS  C:\Users\212596~1\AppData\Local\Temp\cc3UGbLV.s 			page 13


 561 0089 3A       		.uleb128 0x3a
 562 008a 0B       		.uleb128 0xb
 563 008b 3B       		.uleb128 0x3b
 564 008c 05       		.uleb128 0x5
 565 008d 49       		.uleb128 0x49
 566 008e 13       		.uleb128 0x13
 567 008f 3F       		.uleb128 0x3f
 568 0090 19       		.uleb128 0x19
 569 0091 3C       		.uleb128 0x3c
 570 0092 19       		.uleb128 0x19
 571 0093 00       		.byte	0
 572 0094 00       		.byte	0
 573 0095 0A       		.uleb128 0xa
 574 0096 35       		.uleb128 0x35
 575 0097 00       		.byte	0
 576 0098 49       		.uleb128 0x49
 577 0099 13       		.uleb128 0x13
 578 009a 00       		.byte	0
 579 009b 00       		.byte	0
 580 009c 0B       		.uleb128 0xb
 581 009d 34       		.uleb128 0x34
 582 009e 00       		.byte	0
 583 009f 03       		.uleb128 0x3
 584 00a0 0E       		.uleb128 0xe
 585 00a1 3A       		.uleb128 0x3a
 586 00a2 0B       		.uleb128 0xb
 587 00a3 3B       		.uleb128 0x3b
 588 00a4 0B       		.uleb128 0xb
 589 00a5 49       		.uleb128 0x49
 590 00a6 13       		.uleb128 0x13
 591 00a7 3F       		.uleb128 0x3f
 592 00a8 19       		.uleb128 0x19
 593 00a9 02       		.uleb128 0x2
 594 00aa 18       		.uleb128 0x18
 595 00ab 00       		.byte	0
 596 00ac 00       		.byte	0
 597 00ad 0C       		.uleb128 0xc
 598 00ae 01       		.uleb128 0x1
 599 00af 01       		.byte	0x1
 600 00b0 49       		.uleb128 0x49
 601 00b1 13       		.uleb128 0x13
 602 00b2 01       		.uleb128 0x1
 603 00b3 13       		.uleb128 0x13
 604 00b4 00       		.byte	0
 605 00b5 00       		.byte	0
 606 00b6 0D       		.uleb128 0xd
 607 00b7 21       		.uleb128 0x21
 608 00b8 00       		.byte	0
 609 00b9 49       		.uleb128 0x49
 610 00ba 13       		.uleb128 0x13
 611 00bb 2F       		.uleb128 0x2f
 612 00bc 0B       		.uleb128 0xb
 613 00bd 00       		.byte	0
 614 00be 00       		.byte	0
 615 00bf 0E       		.uleb128 0xe
 616 00c0 34       		.uleb128 0x34
 617 00c1 00       		.byte	0
ARM GAS  C:\Users\212596~1\AppData\Local\Temp\cc3UGbLV.s 			page 14


 618 00c2 03       		.uleb128 0x3
 619 00c3 08       		.uleb128 0x8
 620 00c4 3A       		.uleb128 0x3a
 621 00c5 0B       		.uleb128 0xb
 622 00c6 3B       		.uleb128 0x3b
 623 00c7 0B       		.uleb128 0xb
 624 00c8 49       		.uleb128 0x49
 625 00c9 13       		.uleb128 0x13
 626 00ca 3F       		.uleb128 0x3f
 627 00cb 19       		.uleb128 0x19
 628 00cc 02       		.uleb128 0x2
 629 00cd 18       		.uleb128 0x18
 630 00ce 00       		.byte	0
 631 00cf 00       		.byte	0
 632 00d0 00       		.byte	0
 633              		.section	.debug_aranges,"",%progbits
 634 0000 24000000 		.4byte	0x24
 635 0004 0200     		.2byte	0x2
 636 0006 00000000 		.4byte	.Ldebug_info0
 637 000a 04       		.byte	0x4
 638 000b 00       		.byte	0
 639 000c 0000     		.2byte	0
 640 000e 0000     		.2byte	0
 641 0010 00000000 		.4byte	.LFB64
 642 0014 58000000 		.4byte	.LFE64-.LFB64
 643 0018 00000000 		.4byte	.LFB65
 644 001c E0000000 		.4byte	.LFE65-.LFB65
 645 0020 00000000 		.4byte	0
 646 0024 00000000 		.4byte	0
 647              		.section	.debug_ranges,"",%progbits
 648              	.Ldebug_ranges0:
 649 0000 00000000 		.4byte	.LFB64
 650 0004 58000000 		.4byte	.LFE64
 651 0008 00000000 		.4byte	.LFB65
 652 000c E0000000 		.4byte	.LFE65
 653 0010 00000000 		.4byte	0
 654 0014 00000000 		.4byte	0
 655              		.section	.debug_line,"",%progbits
 656              	.Ldebug_line0:
 657 0000 8F010000 		.section	.debug_str,"MS",%progbits,1
 657      02004C01 
 657      00000201 
 657      FB0E0D00 
 657      01010101 
 658              	.LASF24:
 659 0000 474E5520 		.ascii	"GNU C11 5.4.1 20160609 (release) [ARM/embedded-5-br"
 659      43313120 
 659      352E342E 
 659      31203230 
 659      31363036 
 660 0033 616E6368 		.ascii	"anch revision 237715] -mcpu=cortex-m3 -mthumb -g -O"
 660      20726576 
 660      6973696F 
 660      6E203233 
 660      37373135 
 661 0066 30202D66 		.ascii	"0 -ffunction-sections -ffat-lto-objects\000"
 661      66756E63 
ARM GAS  C:\Users\212596~1\AppData\Local\Temp\cc3UGbLV.s 			page 15


 661      74696F6E 
 661      2D736563 
 661      74696F6E 
 662              	.LASF14:
 663 008e 666C6F61 		.ascii	"float\000"
 663      7400
 664              	.LASF9:
 665 0094 5F5F696E 		.ascii	"__int32_t\000"
 665      7433325F 
 665      7400
 666              	.LASF3:
 667 009e 73686F72 		.ascii	"short unsigned int\000"
 667      7420756E 
 667      7369676E 
 667      65642069 
 667      6E7400
 668              	.LASF29:
 669 00b1 696E6974 		.ascii	"init\000"
 669      00
 670              	.LASF20:
 671 00b6 74656D70 		.ascii	"temperature\000"
 671      65726174 
 671      75726500 
 672              	.LASF26:
 673 00c2 433A5C55 		.ascii	"C:\\Users\\212596486\\Documents\\PSoC Creator\\Temp"
 673      73657273 
 673      5C323132 
 673      35393634 
 673      38365C44 
 674 00f0 20322E63 		.ascii	" 2.cydsn\000"
 674      7964736E 
 674      00
 675              	.LASF1:
 676 00f9 756E7369 		.ascii	"unsigned char\000"
 676      676E6564 
 676      20636861 
 676      7200
 677              	.LASF12:
 678 0107 696E7431 		.ascii	"int16\000"
 678      3600
 679              	.LASF5:
 680 010d 6C6F6E67 		.ascii	"long unsigned int\000"
 680      20756E73 
 680      69676E65 
 680      6420696E 
 680      7400
 681              	.LASF13:
 682 011f 696E7433 		.ascii	"int32\000"
 682      3200
 683              	.LASF19:
 684 0125 49544D5F 		.ascii	"ITM_RxBuffer\000"
 684      52784275 
 684      66666572 
 684      00
 685              	.LASF15:
 686 0132 646F7562 		.ascii	"double\000"
 686      6C6500
ARM GAS  C:\Users\212596~1\AppData\Local\Temp\cc3UGbLV.s 			page 16


 687              	.LASF28:
 688 0139 6D61696E 		.ascii	"main\000"
 688      00
 689              	.LASF8:
 690 013e 756E7369 		.ascii	"unsigned int\000"
 690      676E6564 
 690      20696E74 
 690      00
 691              	.LASF7:
 692 014b 6C6F6E67 		.ascii	"long long unsigned int\000"
 692      206C6F6E 
 692      6720756E 
 692      7369676E 
 692      65642069 
 693              	.LASF10:
 694 0162 696E7433 		.ascii	"int32_t\000"
 694      325F7400 
 695              	.LASF18:
 696 016a 73697A65 		.ascii	"sizetype\000"
 696      74797065 
 696      00
 697              	.LASF6:
 698 0173 6C6F6E67 		.ascii	"long long int\000"
 698      206C6F6E 
 698      6720696E 
 698      7400
 699              	.LASF25:
 700 0181 6D61696E 		.ascii	"main.c\000"
 700      2E6300
 701              	.LASF16:
 702 0188 63686172 		.ascii	"char\000"
 702      00
 703              	.LASF2:
 704 018d 73686F72 		.ascii	"short int\000"
 704      7420696E 
 704      7400
 705              	.LASF11:
 706 0197 75696E74 		.ascii	"uint8\000"
 706      3800
 707              	.LASF4:
 708 019d 6C6F6E67 		.ascii	"long int\000"
 708      20696E74 
 708      00
 709              	.LASF17:
 710 01a6 6C6F6E67 		.ascii	"long double\000"
 710      20646F75 
 710      626C6500 
 711              	.LASF22:
 712 01b2 76526566 		.ascii	"vRef\000"
 712      00
 713              	.LASF0:
 714 01b7 7369676E 		.ascii	"signed char\000"
 714      65642063 
 714      68617200 
 715              	.LASF27:
 716 01c3 66756E63 		.ascii	"function\000"
 716      74696F6E 
ARM GAS  C:\Users\212596~1\AppData\Local\Temp\cc3UGbLV.s 			page 17


 716      00
 717              	.LASF21:
 718 01cc 61627354 		.ascii	"absTemp\000"
 718      656D7000 
 719              	.LASF23:
 720 01d4 76546865 		.ascii	"vTherm\000"
 720      726D00
 721              		.ident	"GCC: (GNU Tools for ARM Embedded Processors) 5.4.1 20160609 (release) [ARM/embedded-5-bran
