ARM GAS  C:\Users\212596~1\AppData\Local\Temp\cc9UBzGf.s 			page 1


   1              		.syntax unified
   2              		.cpu cortex-m3
   3              		.fpu softvfp
   4              		.eabi_attribute 20, 1
   5              		.eabi_attribute 21, 1
   6              		.eabi_attribute 23, 3
   7              		.eabi_attribute 24, 1
   8              		.eabi_attribute 25, 1
   9              		.eabi_attribute 26, 1
  10              		.eabi_attribute 30, 6
  11              		.eabi_attribute 34, 1
  12              		.eabi_attribute 18, 4
  13              		.thumb
  14              		.syntax unified
  15              		.file	"Opamp.c"
  16              		.text
  17              	.Ltext0:
  18              		.cfi_sections	.debug_frame
  19              		.global	Opamp_initVar
  20              		.bss
  21              		.type	Opamp_initVar, %object
  22              		.size	Opamp_initVar, 1
  23              	Opamp_initVar:
  24 0000 00       		.space	1
  25              		.section	.text.Opamp_Init,"ax",%progbits
  26              		.align	2
  27              		.global	Opamp_Init
  28              		.thumb
  29              		.thumb_func
  30              		.type	Opamp_Init, %function
  31              	Opamp_Init:
  32              	.LFB0:
  33              		.file 1 "Generated_Source\\PSoC5\\Opamp.c"
   1:Generated_Source\PSoC5/Opamp.c **** /*******************************************************************************
   2:Generated_Source\PSoC5/Opamp.c **** * File Name: Opamp.c
   3:Generated_Source\PSoC5/Opamp.c **** * Version 1.90
   4:Generated_Source\PSoC5/Opamp.c **** *
   5:Generated_Source\PSoC5/Opamp.c **** * Description:
   6:Generated_Source\PSoC5/Opamp.c **** *  This file provides the source code to the API for OpAmp (Analog Buffer) 
   7:Generated_Source\PSoC5/Opamp.c **** *  Component.
   8:Generated_Source\PSoC5/Opamp.c **** *
   9:Generated_Source\PSoC5/Opamp.c **** * Note:
  10:Generated_Source\PSoC5/Opamp.c **** *
  11:Generated_Source\PSoC5/Opamp.c **** ********************************************************************************
  12:Generated_Source\PSoC5/Opamp.c **** * Copyright 2008-2012, Cypress Semiconductor Corporation.  All rights reserved.
  13:Generated_Source\PSoC5/Opamp.c **** * You may use this file only in accordance with the license, terms, conditions, 
  14:Generated_Source\PSoC5/Opamp.c **** * disclaimers, and limitations in the end user license agreement accompanying 
  15:Generated_Source\PSoC5/Opamp.c **** * the software package with which this file was provided.
  16:Generated_Source\PSoC5/Opamp.c **** *******************************************************************************/
  17:Generated_Source\PSoC5/Opamp.c **** 
  18:Generated_Source\PSoC5/Opamp.c **** #include "Opamp.h"
  19:Generated_Source\PSoC5/Opamp.c **** 
  20:Generated_Source\PSoC5/Opamp.c **** uint8 Opamp_initVar = 0u;
  21:Generated_Source\PSoC5/Opamp.c **** 
  22:Generated_Source\PSoC5/Opamp.c **** 
  23:Generated_Source\PSoC5/Opamp.c **** /*******************************************************************************   
  24:Generated_Source\PSoC5/Opamp.c **** * Function Name: Opamp_Init
ARM GAS  C:\Users\212596~1\AppData\Local\Temp\cc9UBzGf.s 			page 2


  25:Generated_Source\PSoC5/Opamp.c **** ********************************************************************************
  26:Generated_Source\PSoC5/Opamp.c **** *
  27:Generated_Source\PSoC5/Opamp.c **** * Summary:
  28:Generated_Source\PSoC5/Opamp.c **** *  Initialize component's parameters to the parameters set by user in the 
  29:Generated_Source\PSoC5/Opamp.c **** *  customizer of the component placed onto schematic. Usually called in 
  30:Generated_Source\PSoC5/Opamp.c **** *  Opamp_Start().
  31:Generated_Source\PSoC5/Opamp.c **** *
  32:Generated_Source\PSoC5/Opamp.c **** * Parameters:
  33:Generated_Source\PSoC5/Opamp.c **** *  void
  34:Generated_Source\PSoC5/Opamp.c **** *
  35:Generated_Source\PSoC5/Opamp.c **** * Return:
  36:Generated_Source\PSoC5/Opamp.c **** *  void
  37:Generated_Source\PSoC5/Opamp.c **** *
  38:Generated_Source\PSoC5/Opamp.c **** *******************************************************************************/
  39:Generated_Source\PSoC5/Opamp.c **** void Opamp_Init(void) 
  40:Generated_Source\PSoC5/Opamp.c **** {
  34              		.loc 1 40 0
  35              		.cfi_startproc
  36              		@ args = 0, pretend = 0, frame = 0
  37              		@ frame_needed = 1, uses_anonymous_args = 0
  38 0000 80B5     		push	{r7, lr}
  39              		.cfi_def_cfa_offset 8
  40              		.cfi_offset 7, -8
  41              		.cfi_offset 14, -4
  42 0002 00AF     		add	r7, sp, #0
  43              		.cfi_def_cfa_register 7
  41:Generated_Source\PSoC5/Opamp.c ****     Opamp_SetPower(Opamp_DEFAULT_POWER);
  44              		.loc 1 41 0
  45 0004 0320     		movs	r0, #3
  46 0006 FFF7FEFF 		bl	Opamp_SetPower
  42:Generated_Source\PSoC5/Opamp.c **** }
  47              		.loc 1 42 0
  48 000a 00BF     		nop
  49 000c 80BD     		pop	{r7, pc}
  50              		.cfi_endproc
  51              	.LFE0:
  52              		.size	Opamp_Init, .-Opamp_Init
  53 000e 00BF     		.section	.text.Opamp_Enable,"ax",%progbits
  54              		.align	2
  55              		.global	Opamp_Enable
  56              		.thumb
  57              		.thumb_func
  58              		.type	Opamp_Enable, %function
  59              	Opamp_Enable:
  60              	.LFB1:
  43:Generated_Source\PSoC5/Opamp.c **** 
  44:Generated_Source\PSoC5/Opamp.c **** 
  45:Generated_Source\PSoC5/Opamp.c **** /*******************************************************************************   
  46:Generated_Source\PSoC5/Opamp.c **** * Function Name: Opamp_Enable
  47:Generated_Source\PSoC5/Opamp.c **** ********************************************************************************
  48:Generated_Source\PSoC5/Opamp.c **** *
  49:Generated_Source\PSoC5/Opamp.c **** * Summary:
  50:Generated_Source\PSoC5/Opamp.c **** *  Enables the OpAmp block operation
  51:Generated_Source\PSoC5/Opamp.c **** *
  52:Generated_Source\PSoC5/Opamp.c **** * Parameters:
  53:Generated_Source\PSoC5/Opamp.c **** *  void
  54:Generated_Source\PSoC5/Opamp.c **** *
ARM GAS  C:\Users\212596~1\AppData\Local\Temp\cc9UBzGf.s 			page 3


  55:Generated_Source\PSoC5/Opamp.c **** * Return:
  56:Generated_Source\PSoC5/Opamp.c **** *  void
  57:Generated_Source\PSoC5/Opamp.c **** *
  58:Generated_Source\PSoC5/Opamp.c **** *******************************************************************************/
  59:Generated_Source\PSoC5/Opamp.c **** void Opamp_Enable(void) 
  60:Generated_Source\PSoC5/Opamp.c **** {
  61              		.loc 1 60 0
  62              		.cfi_startproc
  63              		@ args = 0, pretend = 0, frame = 0
  64              		@ frame_needed = 1, uses_anonymous_args = 0
  65              		@ link register save eliminated.
  66 0000 80B4     		push	{r7}
  67              		.cfi_def_cfa_offset 4
  68              		.cfi_offset 7, -4
  69 0002 00AF     		add	r7, sp, #0
  70              		.cfi_def_cfa_register 7
  61:Generated_Source\PSoC5/Opamp.c ****     /* Enable negative charge pumps in ANIF */
  62:Generated_Source\PSoC5/Opamp.c ****     Opamp_PUMP_CR1_REG  |= (Opamp_PUMP_CR1_CLKSEL | Opamp_PUMP_CR1_FORCE);
  71              		.loc 1 62 0
  72 0004 0D4A     		ldr	r2, .L3
  73 0006 0D4B     		ldr	r3, .L3
  74 0008 1B78     		ldrb	r3, [r3]
  75 000a DBB2     		uxtb	r3, r3
  76 000c 43F06003 		orr	r3, r3, #96
  77 0010 DBB2     		uxtb	r3, r3
  78 0012 1370     		strb	r3, [r2]
  63:Generated_Source\PSoC5/Opamp.c **** 
  64:Generated_Source\PSoC5/Opamp.c ****     /* Enable power to buffer in active mode */
  65:Generated_Source\PSoC5/Opamp.c ****     Opamp_PM_ACT_CFG_REG |= Opamp_ACT_PWR_EN;
  79              		.loc 1 65 0
  80 0014 0A4A     		ldr	r2, .L3+4
  81 0016 0A4B     		ldr	r3, .L3+4
  82 0018 1B78     		ldrb	r3, [r3]
  83 001a DBB2     		uxtb	r3, r3
  84 001c 43F00803 		orr	r3, r3, #8
  85 0020 DBB2     		uxtb	r3, r3
  86 0022 1370     		strb	r3, [r2]
  66:Generated_Source\PSoC5/Opamp.c **** 
  67:Generated_Source\PSoC5/Opamp.c ****     /* Enable power to buffer in alternative active mode */
  68:Generated_Source\PSoC5/Opamp.c ****     Opamp_PM_STBY_CFG_REG |= Opamp_STBY_PWR_EN;
  87              		.loc 1 68 0
  88 0024 074A     		ldr	r2, .L3+8
  89 0026 074B     		ldr	r3, .L3+8
  90 0028 1B78     		ldrb	r3, [r3]
  91 002a DBB2     		uxtb	r3, r3
  92 002c 43F00803 		orr	r3, r3, #8
  93 0030 DBB2     		uxtb	r3, r3
  94 0032 1370     		strb	r3, [r2]
  69:Generated_Source\PSoC5/Opamp.c **** }
  95              		.loc 1 69 0
  96 0034 00BF     		nop
  97 0036 BD46     		mov	sp, r7
  98              		.cfi_def_cfa_register 13
  99              		@ sp needed
 100 0038 80BC     		pop	{r7}
 101              		.cfi_restore 7
 102              		.cfi_def_cfa_offset 0
ARM GAS  C:\Users\212596~1\AppData\Local\Temp\cc9UBzGf.s 			page 4


 103 003a 7047     		bx	lr
 104              	.L4:
 105              		.align	2
 106              	.L3:
 107 003c 77580040 		.word	1073764471
 108 0040 A4430040 		.word	1073759140
 109 0044 B4430040 		.word	1073759156
 110              		.cfi_endproc
 111              	.LFE1:
 112              		.size	Opamp_Enable, .-Opamp_Enable
 113              		.section	.text.Opamp_Start,"ax",%progbits
 114              		.align	2
 115              		.global	Opamp_Start
 116              		.thumb
 117              		.thumb_func
 118              		.type	Opamp_Start, %function
 119              	Opamp_Start:
 120              	.LFB2:
  70:Generated_Source\PSoC5/Opamp.c **** 
  71:Generated_Source\PSoC5/Opamp.c **** 
  72:Generated_Source\PSoC5/Opamp.c **** /*******************************************************************************
  73:Generated_Source\PSoC5/Opamp.c **** * Function Name:   Opamp_Start
  74:Generated_Source\PSoC5/Opamp.c **** ********************************************************************************
  75:Generated_Source\PSoC5/Opamp.c **** *
  76:Generated_Source\PSoC5/Opamp.c **** * Summary:
  77:Generated_Source\PSoC5/Opamp.c **** *  The start function initializes the Analog Buffer with the default values and 
  78:Generated_Source\PSoC5/Opamp.c **** *  sets the power to the given level. A power level of 0, is same as 
  79:Generated_Source\PSoC5/Opamp.c **** *  executing the stop function.
  80:Generated_Source\PSoC5/Opamp.c **** *
  81:Generated_Source\PSoC5/Opamp.c **** * Parameters:
  82:Generated_Source\PSoC5/Opamp.c **** *  void
  83:Generated_Source\PSoC5/Opamp.c **** *
  84:Generated_Source\PSoC5/Opamp.c **** * Return:
  85:Generated_Source\PSoC5/Opamp.c **** *  void
  86:Generated_Source\PSoC5/Opamp.c **** *
  87:Generated_Source\PSoC5/Opamp.c **** * Global variables:
  88:Generated_Source\PSoC5/Opamp.c **** *  Opamp_initVar: Used to check the initial configuration, modified 
  89:Generated_Source\PSoC5/Opamp.c **** *  when this function is called for the first time.
  90:Generated_Source\PSoC5/Opamp.c **** *
  91:Generated_Source\PSoC5/Opamp.c **** *******************************************************************************/
  92:Generated_Source\PSoC5/Opamp.c **** void Opamp_Start(void) 
  93:Generated_Source\PSoC5/Opamp.c **** {
 121              		.loc 1 93 0
 122              		.cfi_startproc
 123              		@ args = 0, pretend = 0, frame = 0
 124              		@ frame_needed = 1, uses_anonymous_args = 0
 125 0000 80B5     		push	{r7, lr}
 126              		.cfi_def_cfa_offset 8
 127              		.cfi_offset 7, -8
 128              		.cfi_offset 14, -4
 129 0002 00AF     		add	r7, sp, #0
 130              		.cfi_def_cfa_register 7
  94:Generated_Source\PSoC5/Opamp.c ****     if(Opamp_initVar == 0u)
 131              		.loc 1 94 0
 132 0004 064B     		ldr	r3, .L7
 133 0006 1B78     		ldrb	r3, [r3]	@ zero_extendqisi2
 134 0008 002B     		cmp	r3, #0
ARM GAS  C:\Users\212596~1\AppData\Local\Temp\cc9UBzGf.s 			page 5


 135 000a 04D1     		bne	.L6
  95:Generated_Source\PSoC5/Opamp.c ****     {
  96:Generated_Source\PSoC5/Opamp.c ****         Opamp_initVar = 1u;
 136              		.loc 1 96 0
 137 000c 044B     		ldr	r3, .L7
 138 000e 0122     		movs	r2, #1
 139 0010 1A70     		strb	r2, [r3]
  97:Generated_Source\PSoC5/Opamp.c ****         Opamp_Init();
 140              		.loc 1 97 0
 141 0012 FFF7FEFF 		bl	Opamp_Init
 142              	.L6:
  98:Generated_Source\PSoC5/Opamp.c ****     }
  99:Generated_Source\PSoC5/Opamp.c **** 
 100:Generated_Source\PSoC5/Opamp.c ****     Opamp_Enable();
 143              		.loc 1 100 0
 144 0016 FFF7FEFF 		bl	Opamp_Enable
 101:Generated_Source\PSoC5/Opamp.c **** }
 145              		.loc 1 101 0
 146 001a 00BF     		nop
 147 001c 80BD     		pop	{r7, pc}
 148              	.L8:
 149 001e 00BF     		.align	2
 150              	.L7:
 151 0020 00000000 		.word	Opamp_initVar
 152              		.cfi_endproc
 153              	.LFE2:
 154              		.size	Opamp_Start, .-Opamp_Start
 155              		.section	.text.Opamp_Stop,"ax",%progbits
 156              		.align	2
 157              		.global	Opamp_Stop
 158              		.thumb
 159              		.thumb_func
 160              		.type	Opamp_Stop, %function
 161              	Opamp_Stop:
 162              	.LFB3:
 102:Generated_Source\PSoC5/Opamp.c **** 
 103:Generated_Source\PSoC5/Opamp.c **** 
 104:Generated_Source\PSoC5/Opamp.c **** /*******************************************************************************
 105:Generated_Source\PSoC5/Opamp.c **** * Function Name: Opamp_Stop
 106:Generated_Source\PSoC5/Opamp.c **** ********************************************************************************
 107:Generated_Source\PSoC5/Opamp.c **** *
 108:Generated_Source\PSoC5/Opamp.c **** * Summary:
 109:Generated_Source\PSoC5/Opamp.c **** *  Powers down amplifier to lowest power state.
 110:Generated_Source\PSoC5/Opamp.c **** *
 111:Generated_Source\PSoC5/Opamp.c **** * Parameters:
 112:Generated_Source\PSoC5/Opamp.c **** *  void
 113:Generated_Source\PSoC5/Opamp.c **** *
 114:Generated_Source\PSoC5/Opamp.c **** * Return:
 115:Generated_Source\PSoC5/Opamp.c **** *  void
 116:Generated_Source\PSoC5/Opamp.c **** *
 117:Generated_Source\PSoC5/Opamp.c **** *******************************************************************************/
 118:Generated_Source\PSoC5/Opamp.c **** void Opamp_Stop(void) 
 119:Generated_Source\PSoC5/Opamp.c **** {
 163              		.loc 1 119 0
 164              		.cfi_startproc
 165              		@ args = 0, pretend = 0, frame = 0
 166              		@ frame_needed = 1, uses_anonymous_args = 0
ARM GAS  C:\Users\212596~1\AppData\Local\Temp\cc9UBzGf.s 			page 6


 167              		@ link register save eliminated.
 168 0000 80B4     		push	{r7}
 169              		.cfi_def_cfa_offset 4
 170              		.cfi_offset 7, -4
 171 0002 00AF     		add	r7, sp, #0
 172              		.cfi_def_cfa_register 7
 120:Generated_Source\PSoC5/Opamp.c ****     /* Disable power to buffer in active mode template */
 121:Generated_Source\PSoC5/Opamp.c ****     Opamp_PM_ACT_CFG_REG &= (uint8)(~Opamp_ACT_PWR_EN);
 173              		.loc 1 121 0
 174 0004 104A     		ldr	r2, .L12
 175 0006 104B     		ldr	r3, .L12
 176 0008 1B78     		ldrb	r3, [r3]
 177 000a DBB2     		uxtb	r3, r3
 178 000c 23F00803 		bic	r3, r3, #8
 179 0010 DBB2     		uxtb	r3, r3
 180 0012 1370     		strb	r3, [r2]
 122:Generated_Source\PSoC5/Opamp.c **** 
 123:Generated_Source\PSoC5/Opamp.c ****     /* Disable power to buffer in alternative active mode template */
 124:Generated_Source\PSoC5/Opamp.c ****     Opamp_PM_STBY_CFG_REG &= (uint8)(~Opamp_STBY_PWR_EN);
 181              		.loc 1 124 0
 182 0014 0D4A     		ldr	r2, .L12+4
 183 0016 0D4B     		ldr	r3, .L12+4
 184 0018 1B78     		ldrb	r3, [r3]
 185 001a DBB2     		uxtb	r3, r3
 186 001c 23F00803 		bic	r3, r3, #8
 187 0020 DBB2     		uxtb	r3, r3
 188 0022 1370     		strb	r3, [r2]
 125:Generated_Source\PSoC5/Opamp.c ****     
 126:Generated_Source\PSoC5/Opamp.c ****     /* Disable negative charge pumps for ANIF only if all ABuf is turned OFF */
 127:Generated_Source\PSoC5/Opamp.c ****     if(Opamp_PM_ACT_CFG_REG == 0u)
 189              		.loc 1 127 0
 190 0024 084B     		ldr	r3, .L12
 191 0026 1B78     		ldrb	r3, [r3]
 192 0028 DBB2     		uxtb	r3, r3
 193 002a 002B     		cmp	r3, #0
 194 002c 07D1     		bne	.L11
 128:Generated_Source\PSoC5/Opamp.c ****     {
 129:Generated_Source\PSoC5/Opamp.c ****         Opamp_PUMP_CR1_REG &= (uint8)(~(Opamp_PUMP_CR1_CLKSEL | Opamp_PUMP_CR1_FORCE));
 195              		.loc 1 129 0
 196 002e 084A     		ldr	r2, .L12+8
 197 0030 074B     		ldr	r3, .L12+8
 198 0032 1B78     		ldrb	r3, [r3]
 199 0034 DBB2     		uxtb	r3, r3
 200 0036 23F06003 		bic	r3, r3, #96
 201 003a DBB2     		uxtb	r3, r3
 202 003c 1370     		strb	r3, [r2]
 203              	.L11:
 130:Generated_Source\PSoC5/Opamp.c ****     }
 131:Generated_Source\PSoC5/Opamp.c **** }
 204              		.loc 1 131 0
 205 003e 00BF     		nop
 206 0040 BD46     		mov	sp, r7
 207              		.cfi_def_cfa_register 13
 208              		@ sp needed
 209 0042 80BC     		pop	{r7}
 210              		.cfi_restore 7
 211              		.cfi_def_cfa_offset 0
ARM GAS  C:\Users\212596~1\AppData\Local\Temp\cc9UBzGf.s 			page 7


 212 0044 7047     		bx	lr
 213              	.L13:
 214 0046 00BF     		.align	2
 215              	.L12:
 216 0048 A4430040 		.word	1073759140
 217 004c B4430040 		.word	1073759156
 218 0050 77580040 		.word	1073764471
 219              		.cfi_endproc
 220              	.LFE3:
 221              		.size	Opamp_Stop, .-Opamp_Stop
 222              		.section	.text.Opamp_SetPower,"ax",%progbits
 223              		.align	2
 224              		.global	Opamp_SetPower
 225              		.thumb
 226              		.thumb_func
 227              		.type	Opamp_SetPower, %function
 228              	Opamp_SetPower:
 229              	.LFB4:
 132:Generated_Source\PSoC5/Opamp.c **** 
 133:Generated_Source\PSoC5/Opamp.c **** 
 134:Generated_Source\PSoC5/Opamp.c **** /*******************************************************************************
 135:Generated_Source\PSoC5/Opamp.c **** * Function Name: Opamp_SetPower
 136:Generated_Source\PSoC5/Opamp.c **** ********************************************************************************
 137:Generated_Source\PSoC5/Opamp.c **** *
 138:Generated_Source\PSoC5/Opamp.c **** * Summary:
 139:Generated_Source\PSoC5/Opamp.c **** *  Sets power level of Analog buffer.
 140:Generated_Source\PSoC5/Opamp.c **** *
 141:Generated_Source\PSoC5/Opamp.c **** * Parameters: 
 142:Generated_Source\PSoC5/Opamp.c **** *  power: PSoC3: Sets power level between low (1) and high power (3).
 143:Generated_Source\PSoC5/Opamp.c **** *         PSoC5: Sets power level High (0)
 144:Generated_Source\PSoC5/Opamp.c **** *
 145:Generated_Source\PSoC5/Opamp.c **** * Return:
 146:Generated_Source\PSoC5/Opamp.c **** *  void
 147:Generated_Source\PSoC5/Opamp.c **** *
 148:Generated_Source\PSoC5/Opamp.c **** **********************************************************************************/
 149:Generated_Source\PSoC5/Opamp.c **** void Opamp_SetPower(uint8 power) 
 150:Generated_Source\PSoC5/Opamp.c **** {
 230              		.loc 1 150 0
 231              		.cfi_startproc
 232              		@ args = 0, pretend = 0, frame = 8
 233              		@ frame_needed = 1, uses_anonymous_args = 0
 234              		@ link register save eliminated.
 235 0000 80B4     		push	{r7}
 236              		.cfi_def_cfa_offset 4
 237              		.cfi_offset 7, -4
 238 0002 83B0     		sub	sp, sp, #12
 239              		.cfi_def_cfa_offset 16
 240 0004 00AF     		add	r7, sp, #0
 241              		.cfi_def_cfa_register 7
 242 0006 0346     		mov	r3, r0
 243 0008 FB71     		strb	r3, [r7, #7]
 151:Generated_Source\PSoC5/Opamp.c ****     #if (CY_PSOC3 || CY_PSOC5LP)
 152:Generated_Source\PSoC5/Opamp.c ****         Opamp_CR_REG &= (uint8)(~Opamp_PWR_MASK);
 244              		.loc 1 152 0
 245 000a 0C4A     		ldr	r2, .L15
 246 000c 0B4B     		ldr	r3, .L15
 247 000e 1B78     		ldrb	r3, [r3]
ARM GAS  C:\Users\212596~1\AppData\Local\Temp\cc9UBzGf.s 			page 8


 248 0010 DBB2     		uxtb	r3, r3
 249 0012 23F00303 		bic	r3, r3, #3
 250 0016 DBB2     		uxtb	r3, r3
 251 0018 1370     		strb	r3, [r2]
 153:Generated_Source\PSoC5/Opamp.c ****         Opamp_CR_REG |= power & Opamp_PWR_MASK;      /* Set device power */
 252              		.loc 1 153 0
 253 001a 0849     		ldr	r1, .L15
 254 001c 074B     		ldr	r3, .L15
 255 001e 1B78     		ldrb	r3, [r3]
 256 0020 DAB2     		uxtb	r2, r3
 257 0022 FB79     		ldrb	r3, [r7, #7]
 258 0024 03F00303 		and	r3, r3, #3
 259 0028 DBB2     		uxtb	r3, r3
 260 002a 1343     		orrs	r3, r3, r2
 261 002c DBB2     		uxtb	r3, r3
 262 002e 0B70     		strb	r3, [r1]
 154:Generated_Source\PSoC5/Opamp.c ****     #else
 155:Generated_Source\PSoC5/Opamp.c ****         CYASSERT(Opamp_HIGHPOWER == power);
 156:Generated_Source\PSoC5/Opamp.c ****     #endif /* CY_PSOC3 || CY_PSOC5LP */
 157:Generated_Source\PSoC5/Opamp.c **** }
 263              		.loc 1 157 0
 264 0030 00BF     		nop
 265 0032 0C37     		adds	r7, r7, #12
 266              		.cfi_def_cfa_offset 4
 267 0034 BD46     		mov	sp, r7
 268              		.cfi_def_cfa_register 13
 269              		@ sp needed
 270 0036 80BC     		pop	{r7}
 271              		.cfi_restore 7
 272              		.cfi_def_cfa_offset 0
 273 0038 7047     		bx	lr
 274              	.L16:
 275 003a 00BF     		.align	2
 276              	.L15:
 277 003c 5E580040 		.word	1073764446
 278              		.cfi_endproc
 279              	.LFE4:
 280              		.size	Opamp_SetPower, .-Opamp_SetPower
 281              		.text
 282              	.Letext0:
 283              		.file 2 "Generated_Source\\PSoC5\\cytypes.h"