ARM GAS  C:\Users\212596~1\AppData\Local\Temp\ccc7eKrg.s 			page 1


   1              		.syntax unified
   2              		.cpu cortex-m3
   3              		.fpu softvfp
   4              		.eabi_attribute 20, 1
   5              		.eabi_attribute 21, 1
   6              		.eabi_attribute 23, 3
   7              		.eabi_attribute 24, 1
   8              		.eabi_attribute 25, 1
   9              		.eabi_attribute 26, 1
  10              		.eabi_attribute 30, 6
  11              		.eabi_attribute 34, 1
  12              		.eabi_attribute 18, 4
  13              		.thumb
  14              		.syntax unified
  15              		.file	"Thermistor.c"
  16              		.text
  17              	.Ltext0:
  18              		.cfi_sections	.debug_frame
  19              		.section	.text.Thermistor_GetResistance,"ax",%progbits
  20              		.align	2
  21              		.global	Thermistor_GetResistance
  22              		.thumb
  23              		.thumb_func
  24              		.type	Thermistor_GetResistance, %function
  25              	Thermistor_GetResistance:
  26              	.LFB0:
  27              		.file 1 "Generated_Source\\PSoC5\\Thermistor.c"
   1:Generated_Source\PSoC5/Thermistor.c **** /*******************************************************************************
   2:Generated_Source\PSoC5/Thermistor.c **** * File Name: Thermistor.c
   3:Generated_Source\PSoC5/Thermistor.c **** * Version 1.20
   4:Generated_Source\PSoC5/Thermistor.c **** *
   5:Generated_Source\PSoC5/Thermistor.c **** * Description:
   6:Generated_Source\PSoC5/Thermistor.c **** *  This file provides the source code to the API for the ThermistorCalc
   7:Generated_Source\PSoC5/Thermistor.c **** *  Component.
   8:Generated_Source\PSoC5/Thermistor.c **** *
   9:Generated_Source\PSoC5/Thermistor.c **** * Note:
  10:Generated_Source\PSoC5/Thermistor.c **** *  None.
  11:Generated_Source\PSoC5/Thermistor.c **** *
  12:Generated_Source\PSoC5/Thermistor.c **** ********************************************************************************
  13:Generated_Source\PSoC5/Thermistor.c **** * Copyright 2013, Cypress Semiconductor Corporation.  All rights reserved.
  14:Generated_Source\PSoC5/Thermistor.c **** * You may use this file only in accordance with the license, terms, conditions,
  15:Generated_Source\PSoC5/Thermistor.c **** * disclaimers, and limitations in the end user license agreement accompanying
  16:Generated_Source\PSoC5/Thermistor.c **** * the software package with which this file was provided.
  17:Generated_Source\PSoC5/Thermistor.c **** *******************************************************************************/
  18:Generated_Source\PSoC5/Thermistor.c **** 
  19:Generated_Source\PSoC5/Thermistor.c **** #include "Thermistor.h"
  20:Generated_Source\PSoC5/Thermistor.c **** 
  21:Generated_Source\PSoC5/Thermistor.c **** 
  22:Generated_Source\PSoC5/Thermistor.c **** /*******************************************************************************
  23:Generated_Source\PSoC5/Thermistor.c **** * Function Name: Thermistor_GetResistance
  24:Generated_Source\PSoC5/Thermistor.c **** ********************************************************************************
  25:Generated_Source\PSoC5/Thermistor.c **** *
  26:Generated_Source\PSoC5/Thermistor.c **** * Summary:
  27:Generated_Source\PSoC5/Thermistor.c **** *  The digital values of the voltages across the reference resistor and the
  28:Generated_Source\PSoC5/Thermistor.c **** *  thermistor are passed to this function as parameters. The function returns
  29:Generated_Source\PSoC5/Thermistor.c **** *  the resistance, based on the voltage values.
  30:Generated_Source\PSoC5/Thermistor.c **** *
ARM GAS  C:\Users\212596~1\AppData\Local\Temp\ccc7eKrg.s 			page 2


  31:Generated_Source\PSoC5/Thermistor.c **** * Parameters:
  32:Generated_Source\PSoC5/Thermistor.c **** *  vReference: the voltage across the reference resistor;
  33:Generated_Source\PSoC5/Thermistor.c **** *  vThermistor: the voltage across the thermistor.
  34:Generated_Source\PSoC5/Thermistor.c **** *  The ratio of these two voltages is used by this function. Therefore, the
  35:Generated_Source\PSoC5/Thermistor.c **** *  units for both parameters must be the same.
  36:Generated_Source\PSoC5/Thermistor.c **** *
  37:Generated_Source\PSoC5/Thermistor.c **** * Return:
  38:Generated_Source\PSoC5/Thermistor.c **** *  The return value is the resistance across the thermistor. The value returned
  39:Generated_Source\PSoC5/Thermistor.c **** *  is the resistance in Ohms.
  40:Generated_Source\PSoC5/Thermistor.c **** *
  41:Generated_Source\PSoC5/Thermistor.c **** *******************************************************************************/
  42:Generated_Source\PSoC5/Thermistor.c **** uint32 Thermistor_GetResistance(int16 vReference, int16 vThermistor)
  43:Generated_Source\PSoC5/Thermistor.c ****                                       
  44:Generated_Source\PSoC5/Thermistor.c **** {
  28              		.loc 1 44 0
  29              		.cfi_startproc
  30              		@ args = 0, pretend = 0, frame = 16
  31              		@ frame_needed = 1, uses_anonymous_args = 0
  32              		@ link register save eliminated.
  33 0000 80B4     		push	{r7}
  34              		.cfi_def_cfa_offset 4
  35              		.cfi_offset 7, -4
  36 0002 85B0     		sub	sp, sp, #20
  37              		.cfi_def_cfa_offset 24
  38 0004 00AF     		add	r7, sp, #0
  39              		.cfi_def_cfa_register 7
  40 0006 0346     		mov	r3, r0
  41 0008 0A46     		mov	r2, r1
  42 000a FB80     		strh	r3, [r7, #6]	@ movhi
  43 000c 1346     		mov	r3, r2	@ movhi
  44 000e BB80     		strh	r3, [r7, #4]	@ movhi
  45:Generated_Source\PSoC5/Thermistor.c ****     int32 resT;
  46:Generated_Source\PSoC5/Thermistor.c ****     int16 temp;
  47:Generated_Source\PSoC5/Thermistor.c **** 
  48:Generated_Source\PSoC5/Thermistor.c ****     /* Calculate thermistor resistance from the voltages */
  49:Generated_Source\PSoC5/Thermistor.c ****     resT = Thermistor_REF_RESISTOR * ((int32)vThermistor);
  45              		.loc 1 49 0
  46 0010 B7F90430 		ldrsh	r3, [r7, #4]
  47 0014 42F2EE52 		movw	r2, #9710
  48 0018 02FB03F3 		mul	r3, r2, r3
  49 001c BB60     		str	r3, [r7, #8]
  50:Generated_Source\PSoC5/Thermistor.c ****     if (vReference < 0)
  50              		.loc 1 50 0
  51 001e B7F90630 		ldrsh	r3, [r7, #6]
  52 0022 002B     		cmp	r3, #0
  53 0024 0CDA     		bge	.L2
  51:Generated_Source\PSoC5/Thermistor.c ****     {
  52:Generated_Source\PSoC5/Thermistor.c ****         temp = -vReference;
  54              		.loc 1 52 0
  55 0026 FB88     		ldrh	r3, [r7, #6]
  56 0028 5B42     		negs	r3, r3
  57 002a 9BB2     		uxth	r3, r3
  58 002c FB81     		strh	r3, [r7, #14]	@ movhi
  53:Generated_Source\PSoC5/Thermistor.c ****         temp = (int16)((uint16)((uint16)temp >> 1u));
  59              		.loc 1 53 0
  60 002e FB89     		ldrh	r3, [r7, #14]
  61 0030 5B08     		lsrs	r3, r3, #1
ARM GAS  C:\Users\212596~1\AppData\Local\Temp\ccc7eKrg.s 			page 3


  62 0032 9BB2     		uxth	r3, r3
  63 0034 FB81     		strh	r3, [r7, #14]	@ movhi
  54:Generated_Source\PSoC5/Thermistor.c ****         temp = -temp;
  64              		.loc 1 54 0
  65 0036 FB89     		ldrh	r3, [r7, #14]
  66 0038 5B42     		negs	r3, r3
  67 003a 9BB2     		uxth	r3, r3
  68 003c FB81     		strh	r3, [r7, #14]	@ movhi
  69 003e 03E0     		b	.L3
  70              	.L2:
  55:Generated_Source\PSoC5/Thermistor.c ****     }
  56:Generated_Source\PSoC5/Thermistor.c ****     else
  57:Generated_Source\PSoC5/Thermistor.c ****     {
  58:Generated_Source\PSoC5/Thermistor.c ****         temp = (int16)((uint16)((uint16)vReference >> 1u));
  71              		.loc 1 58 0
  72 0040 FB88     		ldrh	r3, [r7, #6]
  73 0042 5B08     		lsrs	r3, r3, #1
  74 0044 9BB2     		uxth	r3, r3
  75 0046 FB81     		strh	r3, [r7, #14]	@ movhi
  76              	.L3:
  59:Generated_Source\PSoC5/Thermistor.c ****     }
  60:Generated_Source\PSoC5/Thermistor.c ****     resT += temp;
  77              		.loc 1 60 0
  78 0048 B7F90E30 		ldrsh	r3, [r7, #14]
  79 004c BA68     		ldr	r2, [r7, #8]
  80 004e 1344     		add	r3, r3, r2
  81 0050 BB60     		str	r3, [r7, #8]
  61:Generated_Source\PSoC5/Thermistor.c ****     resT /= vReference;
  82              		.loc 1 61 0
  83 0052 B7F90630 		ldrsh	r3, [r7, #6]
  84 0056 BA68     		ldr	r2, [r7, #8]
  85 0058 92FBF3F3 		sdiv	r3, r2, r3
  86 005c BB60     		str	r3, [r7, #8]
  62:Generated_Source\PSoC5/Thermistor.c **** 
  63:Generated_Source\PSoC5/Thermistor.c ****     /* The ordering of Reference resistor value is specifically designed to keep the result from ov
  64:Generated_Source\PSoC5/Thermistor.c ****     return ((uint32)((uint32)resT << Thermistor_REF_RES_SHIFT));
  87              		.loc 1 64 0
  88 005e BB68     		ldr	r3, [r7, #8]
  65:Generated_Source\PSoC5/Thermistor.c **** }
  89              		.loc 1 65 0
  90 0060 1846     		mov	r0, r3
  91 0062 1437     		adds	r7, r7, #20
  92              		.cfi_def_cfa_offset 4
  93 0064 BD46     		mov	sp, r7
  94              		.cfi_def_cfa_register 13
  95              		@ sp needed
  96 0066 80BC     		pop	{r7}
  97              		.cfi_restore 7
  98              		.cfi_def_cfa_offset 0
  99 0068 7047     		bx	lr
 100              		.cfi_endproc
 101              	.LFE0:
 102              		.size	Thermistor_GetResistance, .-Thermistor_GetResistance
 103              		.global	__aeabi_ui2d
 104              		.global	__aeabi_d2f
 105              		.global	__aeabi_f2d
 106              		.global	__aeabi_dmul
ARM GAS  C:\Users\212596~1\AppData\Local\Temp\ccc7eKrg.s 			page 4


 107              		.global	__aeabi_dadd
 108              		.global	__aeabi_ddiv
 109              		.global	__aeabi_dsub
 110              		.global	__aeabi_f2iz
 111 006a 00BF     		.section	.text.Thermistor_GetTemperature,"ax",%progbits
 112              		.align	2
 113              		.global	Thermistor_GetTemperature
 114              		.thumb
 115              		.thumb_func
 116              		.type	Thermistor_GetTemperature, %function
 117              	Thermistor_GetTemperature:
 118              	.LFB1:
  66:Generated_Source\PSoC5/Thermistor.c **** 
  67:Generated_Source\PSoC5/Thermistor.c **** 
  68:Generated_Source\PSoC5/Thermistor.c **** /*******************************************************************************
  69:Generated_Source\PSoC5/Thermistor.c **** * Function Name: Thermistor_GetTemperature
  70:Generated_Source\PSoC5/Thermistor.c **** ********************************************************************************
  71:Generated_Source\PSoC5/Thermistor.c **** *
  72:Generated_Source\PSoC5/Thermistor.c **** * Summary:
  73:Generated_Source\PSoC5/Thermistor.c **** *  The value of the thermistor resistance is passed to this function as a
  74:Generated_Source\PSoC5/Thermistor.c **** *  parameter. The function returns the temperature, based on the resistance
  75:Generated_Source\PSoC5/Thermistor.c **** *  value. The method used to calculate the temperature is dependent on whether
  76:Generated_Source\PSoC5/Thermistor.c **** *  Equation or LUT was selected in the Customizer.
  77:Generated_Source\PSoC5/Thermistor.c **** *
  78:Generated_Source\PSoC5/Thermistor.c **** * Parameters:
  79:Generated_Source\PSoC5/Thermistor.c **** *  resT: the resistance across the thermistor in Ohms.
  80:Generated_Source\PSoC5/Thermistor.c **** *
  81:Generated_Source\PSoC5/Thermistor.c **** * Return:
  82:Generated_Source\PSoC5/Thermistor.c **** *  The return value is the temperature in 1/100ths of degrees C. For example,
  83:Generated_Source\PSoC5/Thermistor.c **** *  the return value is 2345, when the actual temperature is 23.45 degrees C.
  84:Generated_Source\PSoC5/Thermistor.c **** *
  85:Generated_Source\PSoC5/Thermistor.c **** *******************************************************************************/
  86:Generated_Source\PSoC5/Thermistor.c **** int16 Thermistor_GetTemperature(uint32 resT) 
  87:Generated_Source\PSoC5/Thermistor.c **** {
 119              		.loc 1 87 0
 120              		.cfi_startproc
 121              		@ args = 0, pretend = 0, frame = 24
 122              		@ frame_needed = 1, uses_anonymous_args = 0
 123 0000 B0B5     		push	{r4, r5, r7, lr}
 124              		.cfi_def_cfa_offset 16
 125              		.cfi_offset 4, -16
 126              		.cfi_offset 5, -12
 127              		.cfi_offset 7, -8
 128              		.cfi_offset 14, -4
 129 0002 86B0     		sub	sp, sp, #24
 130              		.cfi_def_cfa_offset 40
 131 0004 00AF     		add	r7, sp, #0
 132              		.cfi_def_cfa_register 7
 133 0006 7860     		str	r0, [r7, #4]
  88:Generated_Source\PSoC5/Thermistor.c ****     int16 tempTR;
  89:Generated_Source\PSoC5/Thermistor.c ****     
  90:Generated_Source\PSoC5/Thermistor.c ****     #if (Thermistor_IMPLEMENTATION == Thermistor_EQUATION_METHOD)
  91:Generated_Source\PSoC5/Thermistor.c **** 
  92:Generated_Source\PSoC5/Thermistor.c ****         float32 stEqn;
  93:Generated_Source\PSoC5/Thermistor.c ****         float32 logrT;
  94:Generated_Source\PSoC5/Thermistor.c **** 
  95:Generated_Source\PSoC5/Thermistor.c ****         /* Calculate thermistor resistance from the voltages */
ARM GAS  C:\Users\212596~1\AppData\Local\Temp\ccc7eKrg.s 			page 5


  96:Generated_Source\PSoC5/Thermistor.c ****         #if(!CY_PSOC3)
  97:Generated_Source\PSoC5/Thermistor.c ****             logrT = (float32)log((float64)resT);
 134              		.loc 1 97 0
 135 0008 7868     		ldr	r0, [r7, #4]
 136 000a FFF7FEFF 		bl	__aeabi_ui2d
 137 000e 0346     		mov	r3, r0
 138 0010 0C46     		mov	r4, r1
 139 0012 1846     		mov	r0, r3
 140 0014 2146     		mov	r1, r4
 141 0016 FFF7FEFF 		bl	log
 142 001a 0346     		mov	r3, r0
 143 001c 0C46     		mov	r4, r1
 144 001e 1846     		mov	r0, r3
 145 0020 2146     		mov	r1, r4
 146 0022 FFF7FEFF 		bl	__aeabi_d2f
 147 0026 0346     		mov	r3, r0
 148 0028 7B61     		str	r3, [r7, #20]	@ float
  98:Generated_Source\PSoC5/Thermistor.c ****         #else
  99:Generated_Source\PSoC5/Thermistor.c ****             logrT = log((float32)resT);
 100:Generated_Source\PSoC5/Thermistor.c ****         #endif  /* (!CY_PSOC3) */
 101:Generated_Source\PSoC5/Thermistor.c **** 
 102:Generated_Source\PSoC5/Thermistor.c ****         /* Calculate temperature from the resistance of thermistor using Steinhart-Hart Equation */
 103:Generated_Source\PSoC5/Thermistor.c ****         #if(!CY_PSOC3)
 104:Generated_Source\PSoC5/Thermistor.c ****             stEqn = (float32)(Thermistor_THA + (Thermistor_THB * logrT) + 
 149              		.loc 1 104 0
 150 002a 7869     		ldr	r0, [r7, #20]	@ float
 151 002c FFF7FEFF 		bl	__aeabi_f2d
 152 0030 33A3     		adr	r3, .L7
 153 0032 D3E90023 		ldrd	r2, [r3]
 154 0036 FFF7FEFF 		bl	__aeabi_dmul
 155 003a 0346     		mov	r3, r0
 156 003c 0C46     		mov	r4, r1
 157 003e 1846     		mov	r0, r3
 158 0040 2146     		mov	r1, r4
 159 0042 31A3     		adr	r3, .L7+8
 160 0044 D3E90023 		ldrd	r2, [r3]
 161 0048 FFF7FEFF 		bl	__aeabi_dadd
 162 004c 0346     		mov	r3, r0
 163 004e 0C46     		mov	r4, r1
 164 0050 2546     		mov	r5, r4
 165 0052 1C46     		mov	r4, r3
 105:Generated_Source\PSoC5/Thermistor.c ****                              (Thermistor_THC * pow((float64)logrT, (float32)3)));
 166              		.loc 1 105 0
 167 0054 7869     		ldr	r0, [r7, #20]	@ float
 168 0056 FFF7FEFF 		bl	__aeabi_f2d
 169 005a 4FF00002 		mov	r2, #0
 170 005e 304B     		ldr	r3, .L7+32
 171 0060 FFF7FEFF 		bl	pow
 172 0064 2AA3     		adr	r3, .L7+16
 173 0066 D3E90023 		ldrd	r2, [r3]
 174 006a FFF7FEFF 		bl	__aeabi_dmul
 175 006e 0246     		mov	r2, r0
 176 0070 0B46     		mov	r3, r1
 104:Generated_Source\PSoC5/Thermistor.c ****                              (Thermistor_THC * pow((float64)logrT, (float32)3)));
 177              		.loc 1 104 0
 178 0072 2046     		mov	r0, r4
 179 0074 2946     		mov	r1, r5
ARM GAS  C:\Users\212596~1\AppData\Local\Temp\ccc7eKrg.s 			page 6


 180 0076 FFF7FEFF 		bl	__aeabi_dadd
 181 007a 0346     		mov	r3, r0
 182 007c 0C46     		mov	r4, r1
 183 007e 1846     		mov	r0, r3
 184 0080 2146     		mov	r1, r4
 185 0082 FFF7FEFF 		bl	__aeabi_d2f
 186 0086 0346     		mov	r3, r0
 187 0088 3B61     		str	r3, [r7, #16]	@ float
 106:Generated_Source\PSoC5/Thermistor.c ****         #else
 107:Generated_Source\PSoC5/Thermistor.c ****             stEqn = (float32)(Thermistor_THA + (Thermistor_THB * logrT) + 
 108:Generated_Source\PSoC5/Thermistor.c ****                              (Thermistor_THC * pow(logrT, (float32)3)));
 109:Generated_Source\PSoC5/Thermistor.c ****         #endif  /* (!CY_PSOC3) */
 110:Generated_Source\PSoC5/Thermistor.c **** 
 111:Generated_Source\PSoC5/Thermistor.c ****         tempTR = (int16)((float32)((((1.0 / stEqn) - Thermistor_K2C) * (float32)Thermistor_SCALE) +
 188              		.loc 1 111 0
 189 008a 3869     		ldr	r0, [r7, #16]	@ float
 190 008c FFF7FEFF 		bl	__aeabi_f2d
 191 0090 0346     		mov	r3, r0
 192 0092 0C46     		mov	r4, r1
 193 0094 1A46     		mov	r2, r3
 194 0096 2346     		mov	r3, r4
 195 0098 4FF00000 		mov	r0, #0
 196 009c 2149     		ldr	r1, .L7+36
 197 009e FFF7FEFF 		bl	__aeabi_ddiv
 198 00a2 0346     		mov	r3, r0
 199 00a4 0C46     		mov	r4, r1
 200 00a6 1846     		mov	r0, r3
 201 00a8 2146     		mov	r1, r4
 202 00aa 1BA3     		adr	r3, .L7+24
 203 00ac D3E90023 		ldrd	r2, [r3]
 204 00b0 FFF7FEFF 		bl	__aeabi_dsub
 205 00b4 0346     		mov	r3, r0
 206 00b6 0C46     		mov	r4, r1
 207 00b8 1846     		mov	r0, r3
 208 00ba 2146     		mov	r1, r4
 209 00bc 4FF00002 		mov	r2, #0
 210 00c0 194B     		ldr	r3, .L7+40
 211 00c2 FFF7FEFF 		bl	__aeabi_dmul
 212 00c6 0346     		mov	r3, r0
 213 00c8 0C46     		mov	r4, r1
 214 00ca 1846     		mov	r0, r3
 215 00cc 2146     		mov	r1, r4
 216 00ce 4FF00002 		mov	r2, #0
 217 00d2 164B     		ldr	r3, .L7+44
 218 00d4 FFF7FEFF 		bl	__aeabi_dadd
 219 00d8 0346     		mov	r3, r0
 220 00da 0C46     		mov	r4, r1
 221 00dc 1846     		mov	r0, r3
 222 00de 2146     		mov	r1, r4
 223 00e0 FFF7FEFF 		bl	__aeabi_d2f
 224 00e4 0346     		mov	r3, r0
 225 00e6 1846     		mov	r0, r3
 226 00e8 FFF7FEFF 		bl	__aeabi_f2iz
 227 00ec 0346     		mov	r3, r0
 228 00ee FB81     		strh	r3, [r7, #14]	@ movhi
 112:Generated_Source\PSoC5/Thermistor.c **** 
 113:Generated_Source\PSoC5/Thermistor.c ****     #else /* Thermistor_IMPLEMENTATION == Thermistor_LUT_METHOD */
ARM GAS  C:\Users\212596~1\AppData\Local\Temp\ccc7eKrg.s 			page 7


 114:Generated_Source\PSoC5/Thermistor.c **** 
 115:Generated_Source\PSoC5/Thermistor.c ****         uint16 mid;
 116:Generated_Source\PSoC5/Thermistor.c ****         uint16 first = 0u;
 117:Generated_Source\PSoC5/Thermistor.c ****         uint16 last = Thermistor_LUT_SIZE - 1u;
 118:Generated_Source\PSoC5/Thermistor.c **** 
 119:Generated_Source\PSoC5/Thermistor.c ****         /* Calculate temperature from the resistance of thermistor by using the LUT */
 120:Generated_Source\PSoC5/Thermistor.c ****         while (first < last)
 121:Generated_Source\PSoC5/Thermistor.c ****         {
 122:Generated_Source\PSoC5/Thermistor.c ****             mid = (first + last) >> 1u;
 123:Generated_Source\PSoC5/Thermistor.c **** 
 124:Generated_Source\PSoC5/Thermistor.c ****             if ((0u == mid) || ((Thermistor_LUT_SIZE - 1u) == mid) || (resT == Thermistor_LUT[mid])
 125:Generated_Source\PSoC5/Thermistor.c ****             {
 126:Generated_Source\PSoC5/Thermistor.c ****                 last = mid;
 127:Generated_Source\PSoC5/Thermistor.c ****                 break;
 128:Generated_Source\PSoC5/Thermistor.c ****             }
 129:Generated_Source\PSoC5/Thermistor.c ****             else if (Thermistor_LUT[mid] > resT)
 130:Generated_Source\PSoC5/Thermistor.c ****             {
 131:Generated_Source\PSoC5/Thermistor.c ****                 first = mid + 1u;
 132:Generated_Source\PSoC5/Thermistor.c ****             }
 133:Generated_Source\PSoC5/Thermistor.c ****             else /* (Thermistor_LUT[mid] < resT) */
 134:Generated_Source\PSoC5/Thermistor.c ****             {
 135:Generated_Source\PSoC5/Thermistor.c ****                 last = mid - 1u;
 136:Generated_Source\PSoC5/Thermistor.c ****             }
 137:Generated_Source\PSoC5/Thermistor.c ****         }
 138:Generated_Source\PSoC5/Thermistor.c **** 
 139:Generated_Source\PSoC5/Thermistor.c ****         /* Calculation the closest entry in the LUT */
 140:Generated_Source\PSoC5/Thermistor.c ****         if ((Thermistor_LUT[last] > resT) && (last < (Thermistor_LUT_SIZE - 1u)) &&
 141:Generated_Source\PSoC5/Thermistor.c ****            ((Thermistor_LUT[last] - resT) > (resT - Thermistor_LUT[last + 1u])))
 142:Generated_Source\PSoC5/Thermistor.c ****         {
 143:Generated_Source\PSoC5/Thermistor.c ****             last++;
 144:Generated_Source\PSoC5/Thermistor.c ****         }
 145:Generated_Source\PSoC5/Thermistor.c ****         else if ((Thermistor_LUT[last] < resT) && (last > 0u) &&
 146:Generated_Source\PSoC5/Thermistor.c ****                 ((Thermistor_LUT[last - 1u] - resT) < (resT - Thermistor_LUT[last])))
 147:Generated_Source\PSoC5/Thermistor.c ****         {
 148:Generated_Source\PSoC5/Thermistor.c ****             last--;
 149:Generated_Source\PSoC5/Thermistor.c ****         }
 150:Generated_Source\PSoC5/Thermistor.c ****         else
 151:Generated_Source\PSoC5/Thermistor.c ****         {
 152:Generated_Source\PSoC5/Thermistor.c ****             /* Closest entry in the LUT already found */
 153:Generated_Source\PSoC5/Thermistor.c ****         }
 154:Generated_Source\PSoC5/Thermistor.c **** 
 155:Generated_Source\PSoC5/Thermistor.c ****         tempTR = Thermistor_MIN_TEMP + (int16)((uint16)(last * Thermistor_ACCURACY));
 156:Generated_Source\PSoC5/Thermistor.c **** 
 157:Generated_Source\PSoC5/Thermistor.c ****     #endif /* (Thermistor_IMPLEMENTATION == Thermistor_EQUATION_METHOD) */
 158:Generated_Source\PSoC5/Thermistor.c **** 
 159:Generated_Source\PSoC5/Thermistor.c ****     return (tempTR);
 229              		.loc 1 159 0
 230 00f0 B7F90E30 		ldrsh	r3, [r7, #14]
 160:Generated_Source\PSoC5/Thermistor.c **** }
 231              		.loc 1 160 0
 232 00f4 1846     		mov	r0, r3
 233 00f6 1837     		adds	r7, r7, #24
 234              		.cfi_def_cfa_offset 16
 235 00f8 BD46     		mov	sp, r7
 236              		.cfi_def_cfa_register 13
 237              		@ sp needed
 238 00fa B0BD     		pop	{r4, r5, r7, pc}
ARM GAS  C:\Users\212596~1\AppData\Local\Temp\ccc7eKrg.s 			page 8


 239              	.L8:
 240 00fc AFF30080 		.align	3
 241              	.L7:
 242 0100 4E5710B7 		.word	-1223665842
 243 0104 8596253F 		.word	1059427973
 244 0108 A986037D 		.word	2097383081
 245 010c 37583E3F 		.word	1061050423
 246 0110 9C84CE17 		.word	399410332
 247 0114 A422A03E 		.word	1050682020
 248 0118 66666666 		.word	1717986918
 249 011c 66127140 		.word	1081152102
 250 0120 00000840 		.word	1074266112
 251 0124 0000F03F 		.word	1072693248
 252 0128 00005940 		.word	1079574528
 253 012c 0000E03F 		.word	1071644672
 254              		.cfi_endproc
 255              	.LFE1:
 256              		.size	Thermistor_GetTemperature, .-Thermistor_GetTemperature
 257              		.text
 258              	.Letext0:
 259              		.file 2 "Generated_Source\\PSoC5\\cytypes.h"